	.text
	.file	"atoi.x9p1444x-cgu.0"
	.file	1 "/rustc/9fda7c2237db910e41d6a712e9a2139b352e558b/src/libstd/thread/mod.rs"
	.file	2 "/rustc/9fda7c2237db910e41d6a712e9a2139b352e558b/src/libstd/io/stdio.rs"
	.file	3 "/rustc/9fda7c2237db910e41d6a712e9a2139b352e558b/src/libstd/sys_common/at_exit_imp.rs"
	.file	4 "/rustc/9fda7c2237db910e41d6a712e9a2139b352e558b/src/libstd/sys_common/backtrace.rs"
	.file	5 "/rustc/9fda7c2237db910e41d6a712e9a2139b352e558b/src/libstd/sys_common/thread.rs"
	.file	6 "/rustc/9fda7c2237db910e41d6a712e9a2139b352e558b/src/libstd/sys_common/thread_local.rs"
	.file	7 "/rustc/9fda7c2237db910e41d6a712e9a2139b352e558b/src/libstd/sys_common/gnu/libbacktrace.rs"
	.file	8 "/rustc/9fda7c2237db910e41d6a712e9a2139b352e558b/src/libstd/sys_common/mod.rs"
	.file	9 "/rustc/9fda7c2237db910e41d6a712e9a2139b352e558b/src/libstd/alloc.rs"
	.file	10 "/rustc/9fda7c2237db910e41d6a712e9a2139b352e558b/src/libstd/panicking.rs"
	.file	11 "/rustc/9fda7c2237db910e41d6a712e9a2139b352e558b/src/libstd/../stdsimd/stdsimd/arch/detect/cache.rs"
	.file	12 "/rustc/9fda7c2237db910e41d6a712e9a2139b352e558b/src/libstd/thread/local.rs"
	.file	13 "/rustc/9fda7c2237db910e41d6a712e9a2139b352e558b/src/libstd/sys/unix/args.rs"
	.file	14 "/rustc/9fda7c2237db910e41d6a712e9a2139b352e558b/src/libstd/sys/unix/fd.rs"
	.file	15 "/rustc/9fda7c2237db910e41d6a712e9a2139b352e558b/src/libstd/sys/unix/fs.rs"
	.file	16 "/rustc/9fda7c2237db910e41d6a712e9a2139b352e558b/src/libstd/sys/unix/os.rs"
	.file	17 "/rustc/9fda7c2237db910e41d6a712e9a2139b352e558b/src/libstd/sys/unix/pipe.rs"
	.file	18 "/rustc/9fda7c2237db910e41d6a712e9a2139b352e558b/src/libstd/sys/unix/rand.rs"
	.file	19 "/rustc/9fda7c2237db910e41d6a712e9a2139b352e558b/src/libstd/sys/unix/stack_overflow.rs"
	.file	20 "/rustc/9fda7c2237db910e41d6a712e9a2139b352e558b/src/libstd/sys/unix/thread.rs"
	.file	21 "/rustc/9fda7c2237db910e41d6a712e9a2139b352e558b/src/libstd/sys/unix/weak.rs"
	.file	22 "/rustc/9fda7c2237db910e41d6a712e9a2139b352e558b/src/liballoc/collections/btree/node.rs"
	.file	23 "/rustc/9fda7c2237db910e41d6a712e9a2139b352e558b/src/libcore/num/flt2dec/strategy/dragon.rs"
	.file	24 "/rustc/9fda7c2237db910e41d6a712e9a2139b352e558b/src/libcore/num/flt2dec/strategy/grisu.rs"
	.file	25 "/rustc/9fda7c2237db910e41d6a712e9a2139b352e558b/src/libcore/num/mod.rs"
	.file	26 "/rustc/9fda7c2237db910e41d6a712e9a2139b352e558b/src/libcore/str/mod.rs"
	.section	".text._ZN3std2rt10lang_start28_$u7b$$u7b$closure$u7d$$u7d$17hdd53286ad6925014E","ax",@progbits
	.p2align	4, 0x90
	.type	_ZN3std2rt10lang_start28_$u7b$$u7b$closure$u7d$$u7d$17hdd53286ad6925014E,@function
_ZN3std2rt10lang_start28_$u7b$$u7b$closure$u7d$$u7d$17hdd53286ad6925014E:
.Lfunc_begin0:
	.cfi_startproc
	pushq	%rax
	.cfi_def_cfa_offset 16
	callq	*(%rdi)
	xorl	%eax, %eax
	popq	%rcx
	.cfi_def_cfa_offset 8
	retq
.Lfunc_end0:
	.size	_ZN3std2rt10lang_start28_$u7b$$u7b$closure$u7d$$u7d$17hdd53286ad6925014E, .Lfunc_end0-_ZN3std2rt10lang_start28_$u7b$$u7b$closure$u7d$$u7d$17hdd53286ad6925014E
	.cfi_endproc

	.section	".text._ZN4core3ops8function6FnOnce9call_once32_$u7b$$u7b$vtable.shim$u7d$$u7d$17hf3dce31d80438272E","ax",@progbits
	.p2align	4, 0x90
	.type	_ZN4core3ops8function6FnOnce9call_once32_$u7b$$u7b$vtable.shim$u7d$$u7d$17hf3dce31d80438272E,@function
_ZN4core3ops8function6FnOnce9call_once32_$u7b$$u7b$vtable.shim$u7d$$u7d$17hf3dce31d80438272E:
.Lfunc_begin1:
	.cfi_startproc
	pushq	%rax
	.cfi_def_cfa_offset 16
	callq	*(%rdi)
	xorl	%eax, %eax
	popq	%rcx
	.cfi_def_cfa_offset 8
	retq
.Lfunc_end1:
	.size	_ZN4core3ops8function6FnOnce9call_once32_$u7b$$u7b$vtable.shim$u7d$$u7d$17hf3dce31d80438272E, .Lfunc_end1-_ZN4core3ops8function6FnOnce9call_once32_$u7b$$u7b$vtable.shim$u7d$$u7d$17hf3dce31d80438272E
	.cfi_endproc

	.section	.text.parse_u8,"ax",@progbits
	.globl	parse_u8
	.p2align	4, 0x90
	.type	parse_u8,@function
parse_u8:
.Lfunc_begin2:
	.cfi_startproc
	testq	%rsi, %rsi
	je	.LBB2_1
	cmpb	$43, (%rdi)
	jne	.LBB2_5
	addq	$-1, %rsi
	je	.LBB2_1
	addq	$1, %rdi
.LBB2_5:
	movq	%rdi, %rcx
	addq	%rsi, %rcx
	xorl	%eax, %eax
	movb	$10, %r8b
	.p2align	4, 0x90
.LBB2_6:
	movl	%eax, %edx
	cmpq	%rdi, %rcx
	je	.LBB2_7
	movzbl	(%rdi), %esi
	addl	$-48, %esi
	cmpl	$9, %esi
	ja	.LBB2_11
	movl	%edx, %eax
	mulb	%r8b
	jo	.LBB2_11
	addq	$1, %rdi
	addb	%sil, %al
	jae	.LBB2_6
.LBB2_11:
	xorl	%eax, %eax
	retq
.LBB2_1:
	xorl	%eax, %eax
	retq
.LBB2_7:
	movb	$1, %al
	retq
.Lfunc_end2:
	.size	parse_u8, .Lfunc_end2-parse_u8
	.cfi_endproc

	.section	.text.parse_u16,"ax",@progbits
	.globl	parse_u16
	.p2align	4, 0x90
	.type	parse_u16,@function
parse_u16:
.Lfunc_begin3:
	.cfi_startproc
	testq	%rsi, %rsi
	je	.LBB3_1
	cmpb	$43, (%rdi)
	jne	.LBB3_5
	addq	$-1, %rsi
	je	.LBB3_1
	addq	$1, %rdi
.LBB3_5:
	movq	%rdi, %r8
	addq	%rsi, %r8
	xorl	%eax, %eax
	movw	$10, %r9w
	.p2align	4, 0x90
.LBB3_6:
	movl	%eax, %ecx
	cmpq	%rdi, %r8
	je	.LBB3_7
	movzbl	(%rdi), %esi
	addl	$-48, %esi
	cmpl	$9, %esi
	ja	.LBB3_11
	movl	%ecx, %eax
	mulw	%r9w
	jo	.LBB3_11
	addq	$1, %rdi
	addw	%si, %ax
	jae	.LBB3_6
.LBB3_11:
	xorl	%eax, %eax
	movl	%ecx, %edx
	retq
.LBB3_1:
	xorl	%eax, %eax
	movl	%ecx, %edx
	retq
.LBB3_7:
	movw	$1, %ax
	movl	%ecx, %edx
	retq
.Lfunc_end3:
	.size	parse_u16, .Lfunc_end3-parse_u16
	.cfi_endproc

	.section	.text._ZN4atoi4main17h42f6859b6dfafba7E,"ax",@progbits
	.p2align	4, 0x90
	.type	_ZN4atoi4main17h42f6859b6dfafba7E,@function
_ZN4atoi4main17h42f6859b6dfafba7E:
.Lfunc_begin4:
	.cfi_startproc
	pushq	%r15
	.cfi_def_cfa_offset 16
	pushq	%r14
	.cfi_def_cfa_offset 24
	pushq	%r12
	.cfi_def_cfa_offset 32
	pushq	%rbx
	.cfi_def_cfa_offset 40
	subq	$72, %rsp
	.cfi_def_cfa_offset 112
	.cfi_offset %rbx, -40
	.cfi_offset %r12, -32
	.cfi_offset %r14, -24
	.cfi_offset %r15, -16
	movb	$0, 6(%rsp)
	leaq	6(%rsp), %r14
	movq	%r14, 8(%rsp)
	leaq	_ZN4core3fmt3num51_$LT$impl$u20$core..fmt..Display$u20$for$u20$u8$GT$3fmt17h07ff44d0d08135b0E(%rip), %rax
	movq	%rax, 16(%rsp)
	leaq	.L__unnamed_1(%rip), %r15
	movq	%r15, 24(%rsp)
	movq	$2, 32(%rsp)
	leaq	.Lanon.32b3edf3a52fcde89cc073c0c773f7a5.118(%rip), %r12
	movq	%r12, 40(%rsp)
	movq	$1, 48(%rsp)
	leaq	8(%rsp), %rbx
	movq	%rbx, 56(%rsp)
	movq	$1, 64(%rsp)
	leaq	24(%rsp), %rdi
	callq	_ZN3std2io5stdio6_print17h46f3f0db7dd4cd21E
	movw	$0, 6(%rsp)
	movq	%r14, 8(%rsp)
	leaq	_ZN4core3fmt3num52_$LT$impl$u20$core..fmt..Display$u20$for$u20$u16$GT$3fmt17h7f456ebea4e6f51aE(%rip), %rax
	movq	%rax, 16(%rsp)
	movq	%r15, 24(%rsp)
	movq	$2, 32(%rsp)
	movq	%r12, 40(%rsp)
	movq	$1, 48(%rsp)
	movq	%rbx, 56(%rsp)
	movq	$1, 64(%rsp)
	leaq	24(%rsp), %rdi
	callq	_ZN3std2io5stdio6_print17h46f3f0db7dd4cd21E
	addq	$72, %rsp
	.cfi_def_cfa_offset 40
	popq	%rbx
	.cfi_def_cfa_offset 32
	popq	%r12
	.cfi_def_cfa_offset 24
	popq	%r14
	.cfi_def_cfa_offset 16
	popq	%r15
	.cfi_def_cfa_offset 8
	retq
.Lfunc_end4:
	.size	_ZN4atoi4main17h42f6859b6dfafba7E, .Lfunc_end4-_ZN4atoi4main17h42f6859b6dfafba7E
	.cfi_endproc

	.section	.rodata.cst16,"aM",@progbits,16
	.p2align	4
.LCPI5_0:
	.quad	4
	.quad	4
.LCPI5_1:
	.zero	16
	.section	.text.main,"ax",@progbits
	.globl	main
	.p2align	4, 0x90
	.type	main,@function
main:
.Lfunc_begin5:
	.cfi_startproc
	.cfi_personality 155, DW.ref.rust_eh_personality
	.cfi_lsda 27, .Lexception0
	pushq	%rbp
	.cfi_def_cfa_offset 16
	pushq	%r15
	.cfi_def_cfa_offset 24
	pushq	%r14
	.cfi_def_cfa_offset 32
	pushq	%r13
	.cfi_def_cfa_offset 40
	pushq	%r12
	.cfi_def_cfa_offset 48
	pushq	%rbx
	.cfi_def_cfa_offset 56
	subq	$312, %rsp
	.cfi_def_cfa_offset 368
	.cfi_offset %rbx, -56
	.cfi_offset %r12, -48
	.cfi_offset %r13, -40
	.cfi_offset %r14, -32
	.cfi_offset %r15, -24
	.cfi_offset %rbp, -16
	leaq	_ZN4atoi4main17h42f6859b6dfafba7E(%rip), %rax
	movq	%rax, 288(%rsp)
	leaq	288(%rsp), %rax
	movq	%rax, 296(%rsp)
	leaq	.L__unnamed_2(%rip), %rax
	movq	%rax, 304(%rsp)
	movl	$13, %edi
	movl	$1, %esi
	callq	*signal@GOTPCREL(%rip)
	cmpq	$-1, %rax
	je	.LBB5_82
	movl	$30, %edi
	callq	*sysconf@GOTPCREL(%rip)
	movq	%rax, _ZN3std3sys4unix6thread5guard9PAGE_SIZE17hd38c2cecd1232214E(%rip)
	testq	%rax, %rax
	je	.LBB5_83
	xorps	%xmm0, %xmm0
	movaps	%xmm0, 160(%rsp)
	movaps	%xmm0, 144(%rsp)
	movaps	%xmm0, 128(%rsp)
	movq	$0, 176(%rsp)
	leaq	128(%rsp), %rdi
	callq	*pthread_attr_init@GOTPCREL(%rip)
	movl	%eax, 104(%rsp)
	leaq	104(%rsp), %r14
	movq	%r14, 96(%rsp)
	leaq	.Lanon.95ea3f7a23504fe23be8a45e85d4cf39.573(%rip), %r15
	movq	%r15, 8(%rsp)
	testl	%eax, %eax
	jne	.LBB5_3
	callq	*pthread_self@GOTPCREL(%rip)
	leaq	128(%rsp), %rsi
	movq	%rax, %rdi
	callq	*pthread_getattr_np@GOTPCREL(%rip)
	testl	%eax, %eax
	je	.LBB5_7
	movl	$1, %ebp
	jmp	.LBB5_10
.LBB5_7:
	movq	$0, 120(%rsp)
	movq	$0, 104(%rsp)
	leaq	128(%rsp), %rdi
	leaq	120(%rsp), %rsi
	leaq	104(%rsp), %rdx
	callq	*pthread_attr_getstack@GOTPCREL(%rip)
	movl	%eax, 116(%rsp)
	leaq	116(%rsp), %rcx
	movq	%rcx, 96(%rsp)
	movq	%r15, 8(%rsp)
	testl	%eax, %eax
	jne	.LBB5_8
	movq	120(%rsp), %rbx
	xorl	%ebp, %ebp
.LBB5_10:
	leaq	128(%rsp), %rdi
	callq	*pthread_attr_destroy@GOTPCREL(%rip)
	movl	%eax, 104(%rsp)
	movq	%r14, 96(%rsp)
	movq	%r15, 8(%rsp)
	testl	%eax, %eax
	jne	.LBB5_11
	testq	%rbp, %rbp
	je	.LBB5_14
	xorl	%r15d, %r15d
	jmp	.LBB5_16
.LBB5_14:
	movq	_ZN3std3sys4unix6thread5guard9PAGE_SIZE17hd38c2cecd1232214E(%rip), %rcx
	testq	%rcx, %rcx
	je	.LBB5_84
	xorl	%edx, %edx
	movq	%rbx, %rax
	divq	%rcx
	leaq	(%rcx,%rbx), %r12
	subq	%rdx, %r12
	testq	%rdx, %rdx
	cmoveq	%rbx, %r12
	movq	%r12, %r14
	subq	%rcx, %r14
	movl	$1, %r15d
.LBB5_16:
	xorps	%xmm0, %xmm0
	movups	%xmm0, 264(%rsp)
	movups	%xmm0, 248(%rsp)
	movups	%xmm0, 232(%rsp)
	movups	%xmm0, 216(%rsp)
	movups	%xmm0, 200(%rsp)
	movups	%xmm0, 184(%rsp)
	movups	%xmm0, 168(%rsp)
	movups	%xmm0, 152(%rsp)
	movups	%xmm0, 136(%rsp)
	movl	$134217732, 264(%rsp)
	leaq	_ZN3std3sys4unix14stack_overflow3imp14signal_handler17h3426e0c0a3c8e2d4E(%rip), %rax
	movq	%rax, 128(%rsp)
	movq	sigaction@GOTPCREL(%rip), %r13
	xorl	%ebp, %ebp
	leaq	128(%rsp), %rbx
	movl	$11, %edi
	xorl	%edx, %edx
	movq	%rbx, %rsi
	callq	*%r13
	movl	$7, %edi
	xorl	%edx, %edx
	movq	%rbx, %rsi
	callq	*%r13
	xorps	%xmm0, %xmm0
	movaps	%xmm0, 48(%rsp)
	movq	$0, 64(%rsp)
	leaq	48(%rsp), %rbx
	xorl	%edi, %edi
	movq	%rbx, %rsi
	callq	*sigaltstack@GOTPCREL(%rip)
	testb	$2, 56(%rsp)
	je	.LBB5_19
	movl	$0, %edi
	movl	$8192, %esi
	movl	$3, %edx
	movl	$34, %ecx
	movl	$-1, %r8d
	xorl	%r9d, %r9d
	callq	*mmap@GOTPCREL(%rip)
	cmpq	$-1, %rax
	je	.LBB5_85
	movq	%rax, 48(%rsp)
	movl	$0, 56(%rsp)
	movq	$8192, 64(%rsp)
	leaq	48(%rsp), %rdi
	xorl	%esi, %esi
	callq	*sigaltstack@GOTPCREL(%rip)
	movq	48(%rsp), %rbp
.LBB5_19:
	movq	%rbp, _ZN3std3sys4unix14stack_overflow3imp13MAIN_ALTSTACK17h16d6cbffdae93fb1E(%rip)
	movl	$4, %edi
	callq	*malloc@GOTPCREL(%rip)
	testq	%rax, %rax
	je	.LBB5_86
	movl	$1852399981, (%rax)
	movq	%rax, 128(%rsp)
	movdqa	.LCPI5_0(%rip), %xmm0
	movdqu	%xmm0, 136(%rsp)
	leaq	128(%rsp), %rdi
	callq	_ZN3std6thread6Thread3new17h03b4b0b7960d791bE
	movq	%rax, 8(%rsp)
	cmpb	$0, %fs:_ZN3std10sys_common11thread_info11THREAD_INFO7__getit5__KEY17he5678628bb877b95E@TPOFF+41
	jne	.LBB5_37
	cmpb	$0, %fs:_ZN3std10sys_common11thread_info11THREAD_INFO7__getit5__KEY17he5678628bb877b95E@TPOFF+40
	jne	.LBB5_26
	cmpq	$0, __cxa_thread_atexit_impl@GOTPCREL(%rip)
	je	.LBB5_24
.Ltmp5:
	movq	%fs:0, %rax
	leaq	_ZN3std10sys_common11thread_info11THREAD_INFO7__getit5__KEY17he5678628bb877b95E@TPOFF(%rax), %rsi
	leaq	_ZN3std6thread5local4fast13destroy_value17h3ac73f3d7f196c8dE(%rip), %rdi
	leaq	_rust_extern_with_linkage___dso_handle(%rip), %rdx
	callq	*__cxa_thread_atexit_impl@GOTPCREL(%rip)
.Ltmp6:
	jmp	.LBB5_25
.LBB5_24:
.Ltmp3:
	movq	%fs:0, %rax
	leaq	_ZN3std10sys_common11thread_info11THREAD_INFO7__getit5__KEY17he5678628bb877b95E@TPOFF(%rax), %rdi
	leaq	_ZN3std6thread5local4fast13destroy_value17h3ac73f3d7f196c8dE(%rip), %rsi
	callq	_ZN3std10sys_common12thread_local22register_dtor_fallback17h7050f9f49d8ab6b9E
.Ltmp4:
.LBB5_25:
	movb	$1, %fs:_ZN3std10sys_common11thread_info11THREAD_INFO7__getit5__KEY17he5678628bb877b95E@TPOFF+40
.LBB5_26:
	cmpq	$3, %fs:_ZN3std10sys_common11thread_info11THREAD_INFO7__getit5__KEY17he5678628bb877b95E@TPOFF+8
	jne	.LBB5_30
	movdqa	%fs:_ZN3std10sys_common11thread_info11THREAD_INFO7__getit5__KEY17he5678628bb877b95E@TPOFF, %xmm0
	movaps	%fs:_ZN3std10sys_common11thread_info11THREAD_INFO7__getit5__KEY17he5678628bb877b95E@TPOFF+16, %xmm1
	movl	$2, %eax
	movq	%rax, %xmm2
	pslldq	$8, %xmm2
	movdqa	%xmm2, %fs:_ZN3std10sys_common11thread_info11THREAD_INFO7__getit5__KEY17he5678628bb877b95E@TPOFF
	movq	%fs:_ZN3std10sys_common11thread_info11THREAD_INFO7__getit5__KEY17he5678628bb877b95E@TPOFF+32, %rax
	movups	%xmm1, 144(%rsp)
	movdqu	%xmm0, 128(%rsp)
	movq	%rax, 160(%rsp)
	pshufd	$78, %xmm0, %xmm0
	movq	%xmm0, %rcx
	testb	$2, %cl
	jne	.LBB5_30
	lock		subq	$1, (%rax)
	jne	.LBB5_30
	leaq	160(%rsp), %rdi
	#MEMBARRIER
	callq	_ZN34_$LT$alloc..sync..Arc$LT$T$GT$$GT$9drop_slow17he9e64d2e2531bf09E
.LBB5_30:
	movq	%fs:_ZN3std10sys_common11thread_info11THREAD_INFO7__getit5__KEY17he5678628bb877b95E@TPOFF, %rax
	testq	%rax, %rax
	js	.LBB5_32
	movabsq	$9223372036854775807, %rcx
	cmpq	%rcx, %rax
	je	.LBB5_32
	cmpq	$2, %fs:_ZN3std10sys_common11thread_info11THREAD_INFO7__getit5__KEY17he5678628bb877b95E@TPOFF+8
	jne	.LBB5_35
	movq	8(%rsp), %rax
	movq	%r15, 16(%rsp)
	movq	%r14, 24(%rsp)
	movq	%r12, 32(%rsp)
	movq	%rax, 40(%rsp)
	cmpb	$0, %fs:_ZN3std10sys_common11thread_info11THREAD_INFO7__getit5__KEY17he5678628bb877b95E@TPOFF+41
	jne	.LBB5_43
	cmpb	$0, %fs:_ZN3std10sys_common11thread_info11THREAD_INFO7__getit5__KEY17he5678628bb877b95E@TPOFF+40
	je	.LBB5_41
	movdqu	16(%rsp), %xmm0
	movups	32(%rsp), %xmm1
	movaps	%xmm1, 64(%rsp)
	movdqa	%xmm0, 48(%rsp)
	jmp	.LBB5_51
.LBB5_41:
	cmpq	$0, __cxa_thread_atexit_impl@GOTPCREL(%rip)
	je	.LBB5_46
.Ltmp12:
	movq	%fs:0, %rax
	leaq	_ZN3std10sys_common11thread_info11THREAD_INFO7__getit5__KEY17he5678628bb877b95E@TPOFF(%rax), %rsi
	leaq	_ZN3std6thread5local4fast13destroy_value17h3ac73f3d7f196c8dE(%rip), %rdi
	leaq	_rust_extern_with_linkage___dso_handle(%rip), %rdx
	callq	*__cxa_thread_atexit_impl@GOTPCREL(%rip)
.Ltmp13:
	jmp	.LBB5_47
.LBB5_46:
.Ltmp10:
	movq	%fs:0, %rax
	leaq	_ZN3std10sys_common11thread_info11THREAD_INFO7__getit5__KEY17he5678628bb877b95E@TPOFF(%rax), %rdi
	leaq	_ZN3std6thread5local4fast13destroy_value17h3ac73f3d7f196c8dE(%rip), %rsi
	callq	_ZN3std10sys_common12thread_local22register_dtor_fallback17h7050f9f49d8ab6b9E
.Ltmp11:
.LBB5_47:
	movb	$1, %fs:_ZN3std10sys_common11thread_info11THREAD_INFO7__getit5__KEY17he5678628bb877b95E@TPOFF+40
	cmpq	$3, %fs:_ZN3std10sys_common11thread_info11THREAD_INFO7__getit5__KEY17he5678628bb877b95E@TPOFF+8
	movdqu	16(%rsp), %xmm0
	movups	32(%rsp), %xmm1
	movaps	%xmm1, 64(%rsp)
	movdqa	%xmm0, 48(%rsp)
	jne	.LBB5_51
	movdqa	%fs:_ZN3std10sys_common11thread_info11THREAD_INFO7__getit5__KEY17he5678628bb877b95E@TPOFF, %xmm0
	movaps	%fs:_ZN3std10sys_common11thread_info11THREAD_INFO7__getit5__KEY17he5678628bb877b95E@TPOFF+16, %xmm1
	movl	$2, %eax
	movq	%rax, %xmm2
	pslldq	$8, %xmm2
	movdqa	%xmm2, %fs:_ZN3std10sys_common11thread_info11THREAD_INFO7__getit5__KEY17he5678628bb877b95E@TPOFF
	movq	%fs:_ZN3std10sys_common11thread_info11THREAD_INFO7__getit5__KEY17he5678628bb877b95E@TPOFF+32, %rax
	movups	%xmm1, 144(%rsp)
	movdqu	%xmm0, 128(%rsp)
	movq	%rax, 160(%rsp)
	pshufd	$78, %xmm0, %xmm0
	movq	%xmm0, %rcx
	testb	$2, %cl
	jne	.LBB5_51
	lock		subq	$1, (%rax)
	jne	.LBB5_51
	leaq	160(%rsp), %rdi
	#MEMBARRIER
	callq	_ZN34_$LT$alloc..sync..Arc$LT$T$GT$$GT$9drop_slow17he9e64d2e2531bf09E
.LBB5_51:
	movq	16(%rbx), %rax
	movq	%rax, 144(%rsp)
	movdqu	(%rbx), %xmm0
	movdqa	%xmm0, 128(%rsp)
	movq	72(%rsp), %rax
	movq	%rax, 152(%rsp)
	cmpq	$0, %fs:_ZN3std10sys_common11thread_info11THREAD_INFO7__getit5__KEY17he5678628bb877b95E@TPOFF
	jne	.LBB5_52
	movq	$-1, %fs:_ZN3std10sys_common11thread_info11THREAD_INFO7__getit5__KEY17he5678628bb877b95E@TPOFF
	cmpq	$2, %fs:_ZN3std10sys_common11thread_info11THREAD_INFO7__getit5__KEY17he5678628bb877b95E@TPOFF+8
	je	.LBB5_56
	movq	%fs:_ZN3std10sys_common11thread_info11THREAD_INFO7__getit5__KEY17he5678628bb877b95E@TPOFF+32, %rax
	lock		subq	$1, (%rax)
	jne	.LBB5_56
	#MEMBARRIER
	movq	%fs:0, %rax
	leaq	_ZN3std10sys_common11thread_info11THREAD_INFO7__getit5__KEY17he5678628bb877b95E@TPOFF+32(%rax), %rdi
	callq	_ZN34_$LT$alloc..sync..Arc$LT$T$GT$$GT$9drop_slow17he9e64d2e2531bf09E
.LBB5_56:
	movdqa	128(%rsp), %xmm0
	movaps	144(%rsp), %xmm1
	movups	%xmm1, %fs:_ZN3std10sys_common11thread_info11THREAD_INFO7__getit5__KEY17he5678628bb877b95E@TPOFF+24
	movdqu	%xmm0, %fs:_ZN3std10sys_common11thread_info11THREAD_INFO7__getit5__KEY17he5678628bb877b95E@TPOFF+8
	addq	$1, %fs:_ZN3std10sys_common11thread_info11THREAD_INFO7__getit5__KEY17he5678628bb877b95E@TPOFF
	leaq	_ZN3std3sys4unix4args3imp4LOCK17h06f53360fee7de2cE(%rip), %rbx
	movq	%rbx, %rdi
	callq	*pthread_mutex_lock@GOTPCREL(%rip)
	movq	%rbx, %rdi
	callq	*pthread_mutex_unlock@GOTPCREL(%rip)
	movq	296(%rsp), %rdi
	movq	304(%rsp), %rsi
.Ltmp18:
	callq	_ZN3std10sys_common9backtrace28__rust_begin_short_backtrace17hd7e9072bc1477033E
.Ltmp19:
	movl	%eax, 132(%rsp)
	xorl	%eax, %eax
	movl	%eax, 128(%rsp)
	movq	_ZN3std10sys_common7cleanup7CLEANUP17h19a62daa8688f1eaE(%rip), %rax
	cmpq	$3, %rax
	je	.LBB5_71
.LBB5_70:
	movb	$1, 16(%rsp)
	leaq	16(%rsp), %rax
	movq	%rax, 48(%rsp)
.Ltmp24:
	leaq	48(%rsp), %rdi
	callq	_ZN3std4sync4once4Once10call_inner17h47a8cdb68ca53bc5E
.Ltmp25:
.LBB5_71:
	movl	128(%rsp), %eax
	movq	136(%rsp), %r15
	movq	144(%rsp), %rbx
	movl	$101, %ebp
	cmpl	$1, %eax
	je	.LBB5_73
	movl	132(%rsp), %ebp
.LBB5_73:
	testl	%eax, %eax
	je	.LBB5_77
.Ltmp27:
	movq	%r15, %rdi
	callq	*(%rbx)
.Ltmp28:
	cmpq	$0, 8(%rbx)
	je	.LBB5_77
	movq	%r15, %rdi
	callq	*free@GOTPCREL(%rip)
.LBB5_77:
	movl	%ebp, %eax
	addq	$312, %rsp
	.cfi_def_cfa_offset 56
	popq	%rbx
	.cfi_def_cfa_offset 48
	popq	%r12
	.cfi_def_cfa_offset 40
	popq	%r13
	.cfi_def_cfa_offset 32
	popq	%r14
	.cfi_def_cfa_offset 24
	popq	%r15
	.cfi_def_cfa_offset 16
	popq	%rbp
	.cfi_def_cfa_offset 8
	retq
.LBB5_32:
	.cfi_def_cfa_offset 368
.Ltmp30:
	callq	_ZN4core6result13unwrap_failed17he072ff4365e93ce2E
.Ltmp31:
	jmp	.LBB5_33
.LBB5_82:
	leaq	.Lanon.95ea3f7a23504fe23be8a45e85d4cf39.706(%rip), %rdi
	leaq	.Lanon.95ea3f7a23504fe23be8a45e85d4cf39.705(%rip), %rdx
	movl	$71, %esi
	callq	_ZN3std9panicking11begin_panic17hfe6a34bacdb12935E
	ud2
.LBB5_83:
	leaq	.Lanon.95ea3f7a23504fe23be8a45e85d4cf39.684(%rip), %rdi
	leaq	.Lanon.95ea3f7a23504fe23be8a45e85d4cf39.683(%rip), %rdx
	movl	$32, %esi
	callq	_ZN3std9panicking11begin_panic17hfe6a34bacdb12935E
	ud2
.LBB5_3:
	leaq	96(%rsp), %rax
	movq	%rax, 16(%rsp)
	leaq	_ZN42_$LT$$RF$T$u20$as$u20$core..fmt..Debug$GT$3fmt17h96bcba01c7960accE(%rip), %rax
	movq	%rax, 24(%rsp)
	leaq	8(%rsp), %rcx
	movq	%rcx, 32(%rsp)
	movq	%rax, 40(%rsp)
	leaq	.Lanon.95ea3f7a23504fe23be8a45e85d4cf39.37(%rip), %rax
	movq	%rax, 48(%rsp)
	movq	$3, 56(%rsp)
	leaq	.Lanon.32b3edf3a52fcde89cc073c0c773f7a5.113(%rip), %rax
	movq	%rax, 64(%rsp)
	movq	$2, 72(%rsp)
	leaq	16(%rsp), %rax
	movq	%rax, 80(%rsp)
	movq	$2, 88(%rsp)
	leaq	.Lanon.95ea3f7a23504fe23be8a45e85d4cf39.680(%rip), %rsi
	leaq	48(%rsp), %rdi
	callq	_ZN3std9panicking15begin_panic_fmt17h11fdc4cc73917110E
	ud2
.LBB5_11:
	leaq	96(%rsp), %rax
	movq	%rax, 16(%rsp)
	leaq	_ZN42_$LT$$RF$T$u20$as$u20$core..fmt..Debug$GT$3fmt17h96bcba01c7960accE(%rip), %rax
	movq	%rax, 24(%rsp)
	leaq	8(%rsp), %rcx
	movq	%rcx, 32(%rsp)
	movq	%rax, 40(%rsp)
	leaq	.Lanon.95ea3f7a23504fe23be8a45e85d4cf39.37(%rip), %rax
	movq	%rax, 48(%rsp)
	movq	$3, 56(%rsp)
	leaq	.Lanon.32b3edf3a52fcde89cc073c0c773f7a5.113(%rip), %rax
	movq	%rax, 64(%rsp)
	movq	$2, 72(%rsp)
	leaq	16(%rsp), %rax
	movq	%rax, 80(%rsp)
	movq	$2, 88(%rsp)
	leaq	.Lanon.95ea3f7a23504fe23be8a45e85d4cf39.682(%rip), %rsi
	leaq	48(%rsp), %rdi
	callq	_ZN3std9panicking15begin_panic_fmt17h11fdc4cc73917110E
	ud2
.LBB5_86:
	movl	$4, %edi
	movl	$1, %esi
	callq	_ZN5alloc5alloc18handle_alloc_error17h2fef2e8fe3cbc446E
	ud2
.LBB5_37:
.Ltmp0:
	callq	_ZN4core6result13unwrap_failed17h8ab5a80736a9f4b2E
.Ltmp1:
	jmp	.LBB5_33
.LBB5_35:
.Ltmp8:
	leaq	.Lanon.95ea3f7a23504fe23be8a45e85d4cf39.368(%rip), %rdi
	leaq	.Lanon.95ea3f7a23504fe23be8a45e85d4cf39.367(%rip), %rdx
	movl	$38, %esi
	callq	_ZN3std9panicking11begin_panic17hfe6a34bacdb12935E
.Ltmp9:
	jmp	.LBB5_33
.LBB5_43:
	lock		subq	$1, (%rax)
	jne	.LBB5_45
	leaq	40(%rsp), %rdi
	#MEMBARRIER
	callq	_ZN34_$LT$alloc..sync..Arc$LT$T$GT$$GT$9drop_slow17he9e64d2e2531bf09E
.LBB5_45:
	callq	_ZN4core6result13unwrap_failed17h8ab5a80736a9f4b2E
	ud2
.LBB5_52:
.Ltmp15:
	callq	_ZN4core6result13unwrap_failed17h05e2de82da9a5c04E
.Ltmp16:
.LBB5_33:
	ud2
.LBB5_85:
	leaq	.Lanon.95ea3f7a23504fe23be8a45e85d4cf39.668(%rip), %rdi
	leaq	.Lanon.95ea3f7a23504fe23be8a45e85d4cf39.667(%rip), %rdx
	movl	$39, %esi
	callq	_ZN3std9panicking11begin_panic17hfe6a34bacdb12935E
	ud2
.LBB5_8:
	leaq	96(%rsp), %rax
	movq	%rax, 16(%rsp)
	leaq	_ZN42_$LT$$RF$T$u20$as$u20$core..fmt..Debug$GT$3fmt17h96bcba01c7960accE(%rip), %rax
	movq	%rax, 24(%rsp)
	leaq	8(%rsp), %rcx
	movq	%rcx, 32(%rsp)
	movq	%rax, 40(%rsp)
	leaq	.Lanon.95ea3f7a23504fe23be8a45e85d4cf39.37(%rip), %rax
	movq	%rax, 48(%rsp)
	movq	$3, 56(%rsp)
	leaq	.Lanon.32b3edf3a52fcde89cc073c0c773f7a5.113(%rip), %rax
	movq	%rax, 64(%rsp)
	movq	$2, 72(%rsp)
	leaq	16(%rsp), %rax
	movq	%rax, 80(%rsp)
	movq	$2, 88(%rsp)
	leaq	.Lanon.95ea3f7a23504fe23be8a45e85d4cf39.681(%rip), %rsi
	leaq	48(%rsp), %rdi
	callq	_ZN3std9panicking15begin_panic_fmt17h11fdc4cc73917110E
	ud2
.LBB5_84:
	leaq	.Lanon.95ea3f7a23504fe23be8a45e85d4cf39.685(%rip), %rdi
	callq	_ZN4core9panicking5panic17h6f50c0de2dcd7974E
	ud2
.LBB5_80:
.Ltmp17:
	movq	%rax, %r14
	leaq	128(%rsp), %rdi
	callq	_ZN4core3ptr18real_drop_in_place17he44f7ac11fce400eE
	movq	%r14, %rdi
	callq	_Unwind_Resume@PLT
	ud2
.LBB5_61:
.Ltmp2:
	jmp	.LBB5_60
.LBB5_36:
.Ltmp32:
	jmp	.LBB5_60
.LBB5_58:
.Ltmp14:
	movq	%rax, %r14
	leaq	16(%rsp), %rdi
	callq	_ZN4core3ptr18real_drop_in_place17he70e9424af4e4196E
	movq	%r14, %rdi
	callq	_Unwind_Resume@PLT
	ud2
.LBB5_59:
.Ltmp7:
.LBB5_60:
	movq	%rax, %r14
	leaq	8(%rsp), %rdi
	callq	_ZN4core3ptr18real_drop_in_place17hd1f9ddf80e6fbabeE
	movq	%r14, %rdi
	callq	_Unwind_Resume@PLT
	ud2
.LBB5_78:
.Ltmp26:
	movq	%rax, %r14
	leaq	128(%rsp), %rdi
	callq	_ZN4core3ptr18real_drop_in_place17hc285ea804b2467caE
	movq	%r14, %rdi
	callq	_Unwind_Resume@PLT
	ud2
.LBB5_79:
.Ltmp29:
	movq	%rax, %r14
	movq	8(%rbx), %rsi
	movq	%r15, %rdi
	callq	_ZN5alloc5alloc8box_free17h43a54758307ef63dE
	movq	%r14, %rdi
	callq	_Unwind_Resume@PLT
	ud2
.LBB5_62:
.Ltmp20:
	movq	64(%rax), %rbx
	movq	72(%rax), %rbp
	movq	$0, 64(%rax)
	movq	%rax, %rdi
	callq	*_Unwind_DeleteException@GOTPCREL(%rip)
	movq	%rbx, 128(%rsp)
	movq	%rbp, 136(%rsp)
	testq	%rbx, %rbx
	je	.LBB5_63
	cmpq	$1, %fs:_ZN3std9panicking18update_panic_count11PANIC_COUNT7__getit5__KEY17h02cedd7d1d9d7fc6E@TPOFF
	jne	.LBB5_67
	movq	%fs:_ZN3std9panicking18update_panic_count11PANIC_COUNT7__getit5__KEY17h02cedd7d1d9d7fc6E@TPOFF+8, %rax
	addq	$-1, %rax
	jmp	.LBB5_68
.LBB5_67:
	movl	$1, %eax
	movq	%rax, %xmm0
	movdqa	%xmm0, %fs:_ZN3std9panicking18update_panic_count11PANIC_COUNT7__getit5__KEY17h02cedd7d1d9d7fc6E@TPOFF
	movq	$-1, %rax
.LBB5_68:
	movq	%rax, %fs:_ZN3std9panicking18update_panic_count11PANIC_COUNT7__getit5__KEY17h02cedd7d1d9d7fc6E@TPOFF+8
	movq	%rbx, 136(%rsp)
	movq	%rbp, 144(%rsp)
	movl	$1, %eax
	movl	%eax, 128(%rsp)
	movq	_ZN3std10sys_common7cleanup7CLEANUP17h19a62daa8688f1eaE(%rip), %rax
	cmpq	$3, %rax
	jne	.LBB5_70
	jmp	.LBB5_71
.LBB5_63:
.Ltmp21:
	leaq	.Lanon.32b3edf3a52fcde89cc073c0c773f7a5.161(%rip), %rdi
	callq	_ZN4core9panicking5panic17h6f50c0de2dcd7974E
.Ltmp22:
	jmp	.LBB5_33
.LBB5_64:
.Ltmp23:
	movq	%rax, %r14
	leaq	128(%rsp), %rdi
	callq	_ZN4core3ptr18real_drop_in_place17h06a5f114862ac481E
	movq	%r14, %rdi
	callq	_Unwind_Resume@PLT
	ud2
.Lfunc_end5:
	.size	main, .Lfunc_end5-main
	.cfi_endproc
	.section	.gcc_except_table,"a",@progbits
	.p2align	2
GCC_except_table5:
.Lexception0:
	.byte	255
	.byte	156
	.uleb128 .Lttbase0-.Lttbaseref0
.Lttbaseref0:
	.byte	1
	.uleb128 .Lcst_end0-.Lcst_begin0
.Lcst_begin0:
	.uleb128 .Lfunc_begin5-.Lfunc_begin5
	.uleb128 .Ltmp5-.Lfunc_begin5
	.byte	0
	.byte	0
	.uleb128 .Ltmp5-.Lfunc_begin5
	.uleb128 .Ltmp4-.Ltmp5
	.uleb128 .Ltmp7-.Lfunc_begin5
	.byte	0
	.uleb128 .Ltmp12-.Lfunc_begin5
	.uleb128 .Ltmp11-.Ltmp12
	.uleb128 .Ltmp14-.Lfunc_begin5
	.byte	0
	.uleb128 .Ltmp18-.Lfunc_begin5
	.uleb128 .Ltmp19-.Ltmp18
	.uleb128 .Ltmp20-.Lfunc_begin5
	.byte	1
	.uleb128 .Ltmp24-.Lfunc_begin5
	.uleb128 .Ltmp25-.Ltmp24
	.uleb128 .Ltmp26-.Lfunc_begin5
	.byte	0
	.uleb128 .Ltmp27-.Lfunc_begin5
	.uleb128 .Ltmp28-.Ltmp27
	.uleb128 .Ltmp29-.Lfunc_begin5
	.byte	0
	.uleb128 .Ltmp30-.Lfunc_begin5
	.uleb128 .Ltmp31-.Ltmp30
	.uleb128 .Ltmp32-.Lfunc_begin5
	.byte	0
	.uleb128 .Ltmp31-.Lfunc_begin5
	.uleb128 .Ltmp0-.Ltmp31
	.byte	0
	.byte	0
	.uleb128 .Ltmp0-.Lfunc_begin5
	.uleb128 .Ltmp1-.Ltmp0
	.uleb128 .Ltmp2-.Lfunc_begin5
	.byte	0
	.uleb128 .Ltmp8-.Lfunc_begin5
	.uleb128 .Ltmp9-.Ltmp8
	.uleb128 .Ltmp32-.Lfunc_begin5
	.byte	0
	.uleb128 .Ltmp9-.Lfunc_begin5
	.uleb128 .Ltmp15-.Ltmp9
	.byte	0
	.byte	0
	.uleb128 .Ltmp15-.Lfunc_begin5
	.uleb128 .Ltmp16-.Ltmp15
	.uleb128 .Ltmp17-.Lfunc_begin5
	.byte	0
	.uleb128 .Ltmp16-.Lfunc_begin5
	.uleb128 .Ltmp21-.Ltmp16
	.byte	0
	.byte	0
	.uleb128 .Ltmp21-.Lfunc_begin5
	.uleb128 .Ltmp22-.Ltmp21
	.uleb128 .Ltmp23-.Lfunc_begin5
	.byte	0
	.uleb128 .Ltmp22-.Lfunc_begin5
	.uleb128 .Lfunc_end5-.Ltmp22
	.byte	0
	.byte	0
.Lcst_end0:
	.byte	1
	.byte	0
	.p2align	2
	.quad	0
.Lttbase0:
	.p2align	2

	.section	.text._ZN12lexical_core4atof9algorithm4math5large13karatsuba_mul17h5ea040f75d413ba9E,"ax",@progbits
	.p2align	4, 0x90
	.type	_ZN12lexical_core4atof9algorithm4math5large13karatsuba_mul17h5ea040f75d413ba9E,@function
_ZN12lexical_core4atof9algorithm4math5large13karatsuba_mul17h5ea040f75d413ba9E:
.Lfunc_begin6:
	.cfi_startproc
	pushq	%rbp
	.cfi_def_cfa_offset 16
	pushq	%r15
	.cfi_def_cfa_offset 24
	pushq	%r14
	.cfi_def_cfa_offset 32
	pushq	%r13
	.cfi_def_cfa_offset 40
	pushq	%r12
	.cfi_def_cfa_offset 48
	pushq	%rbx
	.cfi_def_cfa_offset 56
	subq	$3160, %rsp
	.cfi_def_cfa_offset 3216
	.cfi_offset %rbx, -56
	.cfi_offset %r12, -48
	.cfi_offset %r13, -40
	.cfi_offset %r14, -32
	.cfi_offset %r15, -24
	.cfi_offset %rbp, -16
	movq	%r8, %r15
	movq	%rcx, %r13
	movq	%rdx, %r12
	movq	%rsi, %rbp
	cmpq	$32, %r8
	ja	.LBB6_1
	movq	%rbp, %rsi
	movq	%r12, %rdx
	movq	%r13, %rcx
	movq	%r15, %r8
	addq	$3160, %rsp
	.cfi_def_cfa_offset 56
	popq	%rbx
	.cfi_def_cfa_offset 48
	popq	%r12
	.cfi_def_cfa_offset 40
	popq	%r13
	.cfi_def_cfa_offset 32
	popq	%r14
	.cfi_def_cfa_offset 24
	popq	%r15
	.cfi_def_cfa_offset 16
	popq	%rbp
	.cfi_def_cfa_offset 8
	jmp	_ZN12lexical_core4atof9algorithm4math5large8long_mul17hc7aec24cf5865f0bE
.LBB6_1:
	.cfi_def_cfa_offset 3216
	movq	%r15, %rbx
	shrq	%rbx
	cmpq	%r12, %rbx
	jbe	.LBB6_2
	movq	%rbp, %rsi
	movq	%r12, %rdx
	movq	%r13, %rcx
	movq	%r15, %r8
	addq	$3160, %rsp
	.cfi_def_cfa_offset 56
	popq	%rbx
	.cfi_def_cfa_offset 48
	popq	%r12
	.cfi_def_cfa_offset 40
	popq	%r13
	.cfi_def_cfa_offset 32
	popq	%r14
	.cfi_def_cfa_offset 24
	popq	%r15
	.cfi_def_cfa_offset 16
	popq	%rbp
	.cfi_def_cfa_offset 8
	jmp	_ZN12lexical_core4atof9algorithm4math5large20karatsuba_uneven_mul17h1caad86287a91817E
.LBB6_2:
	.cfi_def_cfa_offset 3216
	movq	%rdi, 32(%rsp)
	movq	$0, 40(%rsp)
	cmpq	$130, %r15
	jae	.LBB6_8
	leaq	(,%rbx,8), %r14
	addq	%rbp, %r14
	movq	%r14, 24(%rsp)
	subq	%rbx, %r12
	leaq	(,%rbx,8), %rax
	addq	%r13, %rax
	movq	%rax, 16(%rsp)
	movq	%r15, %rax
	subq	%rbx, %rax
	movq	%rax, (%rsp)
	leaq	48(%rsp), %rdi
	leaq	(,%rbx,8), %rdx
	movq	%rdx, 8(%rsp)
	movq	%rbp, %rsi
	callq	*memcpy@GOTPCREL(%rip)
	movq	%rbx, 40(%rsp)
	leaq	40(%rsp), %rdi
	xorl	%ecx, %ecx
	movq	%r14, %rsi
	movq	%r12, %rdx
	callq	_ZN12lexical_core4atof9algorithm4math5large9iadd_impl17h048cc00b6d5cdfa4E
	leaq	1080(%rsp), %rdi
	movl	$520, %edx
	leaq	40(%rsp), %rsi
	movq	memcpy@GOTPCREL(%rip), %r14
	callq	*%r14
	leaq	48(%rsp), %rdi
	movq	%r13, %rsi
	movq	8(%rsp), %rdx
	callq	*%r14
	movq	%rbx, 40(%rsp)
	leaq	40(%rsp), %rdi
	xorl	%ecx, %ecx
	movq	16(%rsp), %r14
	movq	%r14, %rsi
	movq	(%rsp), %rdx
	callq	_ZN12lexical_core4atof9algorithm4math5large9iadd_impl17h048cc00b6d5cdfa4E
	leaq	1600(%rsp), %rdi
	movl	$520, %edx
	leaq	40(%rsp), %rsi
	callq	*memcpy@GOTPCREL(%rip)
	leaq	2120(%rsp), %rdi
	movq	%rbp, %rsi
	movq	%rbx, %rdx
	movq	%r13, %rcx
	movq	%rbx, %r8
	callq	_ZN12lexical_core4atof9algorithm4math5large13karatsuba_mul17h5ea040f75d413ba9E
	leaq	1088(%rsp), %rsi
	leaq	1608(%rsp), %rcx
	movq	1080(%rsp), %rdx
	movq	1600(%rsp), %r8
	leaq	2640(%rsp), %r13
	movq	%r13, %rdi
	callq	_ZN12lexical_core4atof9algorithm4math5large13karatsuba_mul17h5ea040f75d413ba9E
	leaq	560(%rsp), %rdi
	movq	24(%rsp), %rsi
	movq	%r12, %rdx
	movq	%r14, %rcx
	movq	(%rsp), %r8
	callq	_ZN12lexical_core4atof9algorithm4math5large13karatsuba_mul17h5ea040f75d413ba9E
	leaq	568(%rsp), %rsi
	movq	560(%rsp), %r12
	movq	%r13, %rdi
	movq	%r12, %rdx
	callq	_ZN12lexical_core4atof9algorithm4math5large4isub17hc96085420a2f8341E
	leaq	2128(%rsp), %r14
	movq	2120(%rsp), %rbp
	movq	%r13, %rdi
	movq	%r14, %rsi
	movq	%rbp, %rdx
	callq	_ZN12lexical_core4atof9algorithm4math5large4isub17hc96085420a2f8341E
	movq	$0, 40(%rsp)
	movq	2640(%rsp), %r13
	leaq	(%rbx,%r13), %rax
	cmpq	%rbp, %rax
	cmovbq	%rbp, %rax
	andq	$-2, %r15
	leaq	(%r12,%r15), %rcx
	cmpq	%rax, %rcx
	cmovaeq	%rcx, %rax
	cmpq	$64, %rax
	jae	.LBB6_9
	cmpq	$65, %rbp
	jae	.LBB6_8
	leaq	48(%rsp), %rdi
	leaq	(,%rbp,8), %rdx
	movq	%r14, %rsi
	movq	memcpy@GOTPCREL(%rip), %rax
	movq	%rax, %r14
	callq	*%rax
	movq	%rbp, 40(%rsp)
	leaq	2648(%rsp), %rsi
	leaq	40(%rsp), %rbp
	movq	%rbp, %rdi
	movq	%r13, %rdx
	movq	%rbx, %rcx
	callq	_ZN12lexical_core4atof9algorithm4math5large9iadd_impl17h048cc00b6d5cdfa4E
	movq	%rbp, %rdi
	leaq	568(%rsp), %rsi
	movq	%r12, %rdx
	movq	%r15, %rcx
	callq	_ZN12lexical_core4atof9algorithm4math5large9iadd_impl17h048cc00b6d5cdfa4E
	movl	$520, %edx
	movq	32(%rsp), %rdi
	movq	%rbp, %rsi
	callq	*%r14
	addq	$3160, %rsp
	.cfi_def_cfa_offset 56
	popq	%rbx
	.cfi_def_cfa_offset 48
	popq	%r12
	.cfi_def_cfa_offset 40
	popq	%r13
	.cfi_def_cfa_offset 32
	popq	%r14
	.cfi_def_cfa_offset 24
	popq	%r15
	.cfi_def_cfa_offset 16
	popq	%rbp
	.cfi_def_cfa_offset 8
	retq
.LBB6_8:
	.cfi_def_cfa_offset 3216
	leaq	anon.8d7f88ddceff33a78431340ac890e2e8.7.llvm.11096832420347508346(%rip), %rdi
	leaq	anon.8d7f88ddceff33a78431340ac890e2e8.6.llvm.11096832420347508346(%rip), %rdx
	movl	$84, %esi
	callq	_ZN3std9panicking11begin_panic17hc53bd1a638d5bd8cE
	ud2
.LBB6_9:
	leaq	anon.3db3eae2adbf5b8be24024acfd48bafc.6.llvm.18143362009588027268(%rip), %rdi
	leaq	.Lanon.0cf0e614828bd2b2e3ccc924e4b90267.5(%rip), %rdx
	movl	$44, %esi
	callq	_ZN3std9panicking11begin_panic17hc53bd1a638d5bd8cE
	ud2
.Lfunc_end6:
	.size	_ZN12lexical_core4atof9algorithm4math5large13karatsuba_mul17h5ea040f75d413ba9E, .Lfunc_end6-_ZN12lexical_core4atof9algorithm4math5large13karatsuba_mul17h5ea040f75d413ba9E
	.cfi_endproc

	.section	.text._ZN12lexical_core4atof9algorithm4math5large8long_mul17hc7aec24cf5865f0bE,"ax",@progbits
	.p2align	4, 0x90
	.type	_ZN12lexical_core4atof9algorithm4math5large8long_mul17hc7aec24cf5865f0bE,@function
_ZN12lexical_core4atof9algorithm4math5large8long_mul17hc7aec24cf5865f0bE:
.Lfunc_begin7:
	.cfi_startproc
	pushq	%rbp
	.cfi_def_cfa_offset 16
	pushq	%r15
	.cfi_def_cfa_offset 24
	pushq	%r14
	.cfi_def_cfa_offset 32
	pushq	%r13
	.cfi_def_cfa_offset 40
	pushq	%r12
	.cfi_def_cfa_offset 48
	pushq	%rbx
	.cfi_def_cfa_offset 56
	subq	$1640, %rsp
	.cfi_def_cfa_offset 1696
	.cfi_offset %rbx, -56
	.cfi_offset %r12, -48
	.cfi_offset %r13, -40
	.cfi_offset %r14, -32
	.cfi_offset %r15, -24
	.cfi_offset %rbp, -16
	movq	%rsi, 24(%rsp)
	testq	%r8, %r8
	je	.LBB7_54
	movq	%rcx, %r12
	movq	%rdx, %rax
	movq	(%rcx), %r14
	movq	$0, 80(%rsp)
	cmpq	$65, %rdx
	jae	.LBB7_55
	movq	%r8, %r15
	movq	%rdi, %r13
	leaq	88(%rsp), %rbx
	leaq	(,%rax,8), %rdx
	movq	%rbx, %rdi
	movq	24(%rsp), %rsi
	movq	%rdx, 8(%rsp)
	movq	%rax, %rbp
	callq	*memcpy@GOTPCREL(%rip)
	movq	%rbp, 80(%rsp)
	testq	%rbp, %rbp
	movq	%rbp, 40(%rsp)
	je	.LBB7_15
	movq	8(%rsp), %rax
	leaq	-8(%rax), %rcx
	movq	%rcx, %rax
	shrq	$3, %rax
	addq	$1, %rax
	movl	%eax, %r10d
	andl	$3, %r10d
	cmpq	$24, %rcx
	jae	.LBB7_11
	xorl	%ecx, %ecx
	movq	%rcx, %rdx
	testq	%r10, %r10
	jne	.LBB7_6
	jmp	.LBB7_8
.LBB7_11:
	movq	%r15, 16(%rsp)
	movl	$1, %ecx
	subq	%rax, %rcx
	leaq	(%r10,%rcx), %r15
	addq	$-1, %r15
	xorl	%ecx, %ecx
	.p2align	4, 0x90
.LBB7_12:
	movq	%r14, %rax
	mulq	(%rbx)
	movq	%rdx, %r8
	movq	%rax, %rsi
	movq	%r14, %rax
	mulq	8(%rbx)
	movq	%rdx, %r9
	movq	%rax, %rbp
	movq	%r14, %rax
	mulq	16(%rbx)
	movq	%rdx, %r11
	movq	%rax, %rdi
	movq	%r14, %rax
	mulq	24(%rbx)
	addq	%rcx, %rsi
	adcq	%r8, %rbp
	movq	%rsi, (%rbx)
	movq	%rbp, 8(%rbx)
	adcq	%r9, %rdi
	adcq	%r11, %rax
	movq	%rdx, %rcx
	adcq	$0, %rcx
	movq	%rdi, 16(%rbx)
	movq	%rax, 24(%rbx)
	leaq	32(%rbx), %rbx
	addq	$4, %r15
	jne	.LBB7_12
	movq	40(%rsp), %rbp
	movq	16(%rsp), %r15
	movq	%rcx, %rdx
	testq	%r10, %r10
	je	.LBB7_8
.LBB7_6:
	shlq	$3, %r10
	xorl	%esi, %esi
	.p2align	4, 0x90
.LBB7_7:
	movq	%r14, %rax
	mulq	(%rbx,%rsi)
	addq	%rcx, %rax
	adcq	$0, %rdx
	movq	%rax, (%rbx,%rsi)
	addq	$8, %rsi
	movq	%rdx, %rcx
	cmpq	%rsi, %r10
	jne	.LBB7_7
.LBB7_8:
	testq	%rdx, %rdx
	je	.LBB7_15
	cmpq	$64, %rbp
	jae	.LBB7_10
	movq	%rdx, 88(%rsp,%rbp,8)
	addq	$1, 80(%rsp)
.LBB7_15:
	leaq	600(%rsp), %rdi
	leaq	80(%rsp), %rsi
	movl	$520, %edx
	movq	%rbp, %rbx
	callq	*memcpy@GOTPCREL(%rip)
	movq	%rbp, %rax
	leaq	(%r15,%rbp), %rbp
	cmpq	$65, %rbp
	jae	.LBB7_56
	movq	%r13, 64(%rsp)
	movq	600(%rsp), %rax
	movq	%rbp, %rdx
	subq	%rax, %rdx
	jbe	.LBB7_19
	je	.LBB7_20
	leaq	(%rsp,%rax,8), %rdi
	addq	$608, %rdi
	shlq	$3, %rdx
	xorl	%esi, %esi
	callq	*memset@GOTPCREL(%rip)
	jmp	.LBB7_20
.LBB7_19:
	jae	.LBB7_21
.LBB7_20:
	movq	%rbp, 600(%rsp)
.LBB7_21:
	cmpq	$1, %r15
	je	.LBB7_46
	leaq	88(%rsp), %rbp
	leaq	1128(%rsp), %r14
	testq	%rbx, %rbx
	je	.LBB7_23
	movq	%rbx, %rcx
	leaq	(%r12,%r15,8), %rax
	movq	%rax, 16(%rsp)
	addq	$8, %r12
	movq	8(%rsp), %rax
	leaq	-8(%rax), %rax
	movq	%rax, 56(%rsp)
	shrq	$3, %rax
	addq	$1, %rax
	movl	%eax, %edx
	andl	$3, %edx
	cmpq	$64, %rbx
	movq	%rdx, 48(%rsp)
	movl	$1, %ecx
	jae	.LBB7_26
	subq	%rax, %rcx
	addq	%rdx, %rcx
	addq	$-1, %rcx
	movq	%rcx, 32(%rsp)
	leaq	(,%rdx,8), %r13
	xorl	%r14d, %r14d
	movq	memcpy@GOTPCREL(%rip), %rax
	.p2align	4, 0x90
.LBB7_35:
	movq	(%r12), %r15
	movq	%rbp, %rdi
	movq	24(%rsp), %rsi
	movq	8(%rsp), %rdx
	callq	*%rax
	movq	%rbx, 80(%rsp)
	cmpq	$24, 56(%rsp)
	jae	.LBB7_37
	movq	%rbx, %rsi
	xorl	%ebx, %ebx
	movq	%rbp, %rdi
	movq	%rbx, %rdx
	cmpq	$0, 48(%rsp)
	jne	.LBB7_41
	jmp	.LBB7_43
	.p2align	4, 0x90
.LBB7_37:
	movq	32(%rsp), %r11
	xorl	%ebx, %ebx
	movq	%rbp, %rdi
	.p2align	4, 0x90
.LBB7_38:
	movq	%r15, %rax
	mulq	(%rdi)
	movq	%rdx, %r8
	movq	%rax, %rsi
	movq	%r15, %rax
	mulq	8(%rdi)
	movq	%rdx, %r9
	movq	%rax, %rbp
	movq	%r15, %rax
	mulq	16(%rdi)
	movq	%rdx, %r10
	movq	%rax, %rcx
	movq	%r15, %rax
	mulq	24(%rdi)
	addq	%rbx, %rsi
	adcq	%r8, %rbp
	movq	%rsi, (%rdi)
	movq	%rbp, 8(%rdi)
	adcq	%r9, %rcx
	adcq	%r10, %rax
	movq	%rdx, %rbx
	adcq	$0, %rbx
	movq	%rcx, 16(%rdi)
	movq	%rax, 24(%rdi)
	leaq	32(%rdi), %rdi
	addq	$4, %r11
	jne	.LBB7_38
	movq	40(%rsp), %rsi
	movq	%rbx, %rdx
	cmpq	$0, 48(%rsp)
	je	.LBB7_43
.LBB7_41:
	xorl	%ecx, %ecx
	.p2align	4, 0x90
.LBB7_42:
	movq	%r15, %rax
	mulq	(%rdi,%rcx)
	addq	%rbx, %rax
	adcq	$0, %rdx
	movq	%rax, (%rdi,%rcx)
	addq	$8, %rcx
	movq	%rdx, %rbx
	cmpq	%rcx, %r13
	jne	.LBB7_42
.LBB7_43:
	addq	$8, %r12
	addq	$1, %r14
	testq	%rdx, %rdx
	je	.LBB7_45
	movq	%rdx, 88(%rsp,%rsi,8)
	addq	$1, 80(%rsp)
.LBB7_45:
	movq	%rsi, %rbx
	movl	$520, %edx
	leaq	1120(%rsp), %rdi
	leaq	80(%rsp), %rsi
	movq	memcpy@GOTPCREL(%rip), %rax
	movq	%rax, %rbp
	callq	*%rax
	movq	1120(%rsp), %rdx
	leaq	600(%rsp), %rdi
	leaq	1128(%rsp), %rsi
	movq	%r14, %rcx
	callq	_ZN12lexical_core4atof9algorithm4math5large9iadd_impl17h048cc00b6d5cdfa4E
	movq	%rbp, %rax
	cmpq	16(%rsp), %r12
	leaq	88(%rsp), %rbp
	jne	.LBB7_35
	jmp	.LBB7_46
.LBB7_23:
	leaq	-8(,%r15,8), %rbp
	movl	$1, %ebx
	movq	memcpy@GOTPCREL(%rip), %r13
	leaq	80(%rsp), %r12
	leaq	600(%rsp), %r15
	.p2align	4, 0x90
.LBB7_24:
	leaq	88(%rsp), %rdi
	movq	24(%rsp), %rsi
	movq	8(%rsp), %rdx
	callq	*%r13
	movq	$0, 80(%rsp)
	movl	$520, %edx
	leaq	1120(%rsp), %rdi
	movq	%r12, %rsi
	callq	*%r13
	movq	1120(%rsp), %rdx
	movq	%r15, %rdi
	movq	%r14, %rsi
	movq	%rbx, %rcx
	callq	_ZN12lexical_core4atof9algorithm4math5large9iadd_impl17h048cc00b6d5cdfa4E
	addq	$1, %rbx
	addq	$-8, %rbp
	jne	.LBB7_24
	jmp	.LBB7_46
.LBB7_26:
	subq	%rax, %rcx
	addq	%rdx, %rcx
	addq	$-1, %rcx
	movq	%rcx, 72(%rsp)
	leaq	(,%rdx,8), %r13
	xorl	%eax, %eax
	movq	%rax, 32(%rsp)
	movq	memcpy@GOTPCREL(%rip), %rax
	xorl	%r14d, %r14d
	.p2align	4, 0x90
.LBB7_27:
	movq	(%r12), %r15
	movq	%rbp, %rdi
	movq	24(%rsp), %rsi
	movq	8(%rsp), %rdx
	callq	*%rax
	movq	%rbx, 80(%rsp)
	cmpq	$24, 56(%rsp)
	jae	.LBB7_51
	movq	%rbx, %rsi
	xorl	%ebx, %ebx
	movq	%rbp, %rdi
	movq	%rbx, %rdx
	cmpq	$0, 48(%rsp)
	jne	.LBB7_30
	jmp	.LBB7_32
	.p2align	4, 0x90
.LBB7_51:
	movq	72(%rsp), %r11
	xorl	%ebx, %ebx
	movq	%rbp, %rdi
	.p2align	4, 0x90
.LBB7_52:
	movq	%r15, %rax
	mulq	(%rdi)
	movq	%rdx, %r8
	movq	%rax, %rsi
	movq	%r15, %rax
	mulq	8(%rdi)
	movq	%rdx, %r9
	movq	%rax, %rbp
	movq	%r15, %rax
	mulq	16(%rdi)
	movq	%rdx, %r10
	movq	%rax, %rcx
	movq	%r15, %rax
	mulq	24(%rdi)
	addq	%rbx, %rsi
	adcq	%r8, %rbp
	movq	%rsi, (%rdi)
	movq	%rbp, 8(%rdi)
	adcq	%r9, %rcx
	adcq	%r10, %rax
	movq	%rdx, %rbx
	adcq	$0, %rbx
	movq	%rcx, 16(%rdi)
	movq	%rax, 24(%rdi)
	leaq	32(%rdi), %rdi
	addq	$4, %r11
	jne	.LBB7_52
	movq	40(%rsp), %rsi
	movq	%rbx, %rdx
	cmpq	$0, 48(%rsp)
	je	.LBB7_32
.LBB7_30:
	xorl	%ecx, %ecx
	.p2align	4, 0x90
.LBB7_31:
	movq	%r15, %rax
	mulq	(%rdi,%rcx)
	addq	%rbx, %rax
	adcq	$0, %rdx
	movq	%rax, (%rdi,%rcx)
	addq	$8, %rcx
	movq	%rdx, %rbx
	cmpq	%rcx, %r13
	jne	.LBB7_31
.LBB7_32:
	orq	32(%rsp), %rdx
	jne	.LBB7_10
	movq	%rsi, %rbx
	addq	$8, %r12
	addq	$1, %r14
	movl	$520, %edx
	leaq	1120(%rsp), %rdi
	leaq	80(%rsp), %rsi
	movq	memcpy@GOTPCREL(%rip), %rax
	movq	%rax, %rbp
	callq	*%rax
	movq	1120(%rsp), %rdx
	leaq	600(%rsp), %rdi
	leaq	1128(%rsp), %rsi
	movq	%r14, %rcx
	callq	_ZN12lexical_core4atof9algorithm4math5large9iadd_impl17h048cc00b6d5cdfa4E
	movq	%rbp, %rax
	cmpq	16(%rsp), %r12
	leaq	88(%rsp), %rbp
	jne	.LBB7_27
.LBB7_46:
	movq	600(%rsp), %rax
	testq	%rax, %rax
	je	.LBB7_50
	addq	$-1, %rax
	.p2align	4, 0x90
.LBB7_48:
	cmpq	$0, 608(%rsp,%rax,8)
	jne	.LBB7_50
	movq	%rax, 600(%rsp)
	addq	$-1, %rax
	cmpq	$-1, %rax
	jne	.LBB7_48
.LBB7_50:
	leaq	600(%rsp), %rsi
	movl	$520, %edx
	movq	64(%rsp), %rdi
	callq	*memcpy@GOTPCREL(%rip)
	addq	$1640, %rsp
	.cfi_def_cfa_offset 56
	popq	%rbx
	.cfi_def_cfa_offset 48
	popq	%r12
	.cfi_def_cfa_offset 40
	popq	%r13
	.cfi_def_cfa_offset 32
	popq	%r14
	.cfi_def_cfa_offset 24
	popq	%r15
	.cfi_def_cfa_offset 16
	popq	%rbp
	.cfi_def_cfa_offset 8
	retq
.LBB7_10:
	.cfi_def_cfa_offset 1696
	leaq	.Lanon.3db3eae2adbf5b8be24024acfd48bafc.2(%rip), %rdi
	leaq	.Lanon.3db3eae2adbf5b8be24024acfd48bafc.1(%rip), %rdx
	movl	$46, %esi
	callq	_ZN3std9panicking11begin_panic17hc53bd1a638d5bd8cE
	ud2
.LBB7_54:
	leaq	.Lanon.0cf0e614828bd2b2e3ccc924e4b90267.7(%rip), %rdi
	xorl	%esi, %esi
	xorl	%edx, %edx
	callq	_ZN4core9panicking18panic_bounds_check17h620ba7e4e283471aE
	ud2
.LBB7_55:
	leaq	anon.8d7f88ddceff33a78431340ac890e2e8.7.llvm.11096832420347508346(%rip), %rdi
	leaq	anon.8d7f88ddceff33a78431340ac890e2e8.6.llvm.11096832420347508346(%rip), %rdx
	movl	$84, %esi
	callq	_ZN3std9panicking11begin_panic17hc53bd1a638d5bd8cE
	ud2
.LBB7_56:
	leaq	anon.8d7f88ddceff33a78431340ac890e2e8.11.llvm.11096832420347508346(%rip), %rdi
	leaq	anon.8d7f88ddceff33a78431340ac890e2e8.10.llvm.11096832420347508346(%rip), %rdx
	movl	$40, %esi
	callq	_ZN3std9panicking11begin_panic17hc53bd1a638d5bd8cE
	ud2
.Lfunc_end7:
	.size	_ZN12lexical_core4atof9algorithm4math5large8long_mul17hc7aec24cf5865f0bE, .Lfunc_end7-_ZN12lexical_core4atof9algorithm4math5large8long_mul17hc7aec24cf5865f0bE
	.cfi_endproc

	.section	.text._ZN12lexical_core4atof9algorithm4math5large20karatsuba_uneven_mul17h1caad86287a91817E,"ax",@progbits
	.p2align	4, 0x90
	.type	_ZN12lexical_core4atof9algorithm4math5large20karatsuba_uneven_mul17h1caad86287a91817E,@function
_ZN12lexical_core4atof9algorithm4math5large20karatsuba_uneven_mul17h1caad86287a91817E:
.Lfunc_begin8:
	.cfi_startproc
	pushq	%rbp
	.cfi_def_cfa_offset 16
	pushq	%r15
	.cfi_def_cfa_offset 24
	pushq	%r14
	.cfi_def_cfa_offset 32
	pushq	%r13
	.cfi_def_cfa_offset 40
	pushq	%r12
	.cfi_def_cfa_offset 48
	pushq	%rbx
	.cfi_def_cfa_offset 56
	subq	$1064, %rsp
	.cfi_def_cfa_offset 1120
	.cfi_offset %rbx, -56
	.cfi_offset %r12, -48
	.cfi_offset %r13, -40
	.cfi_offset %r14, -32
	.cfi_offset %r15, -24
	.cfi_offset %rbp, -16
	movq	$0, 24(%rsp)
	leaq	(%r8,%rdx), %rbp
	cmpq	$65, %rbp
	jae	.LBB8_12
	movq	%r8, %rbx
	movq	%rcx, %r13
	movq	%rdx, %r12
	movq	%rsi, %r15
	movq	%rdi, %r14
	testq	%rbp, %rbp
	je	.LBB8_3
	leaq	32(%rsp), %rdi
	leaq	(,%rbp,8), %rdx
	xorl	%esi, %esi
	callq	*memset@GOTPCREL(%rip)
	movq	%rbp, 24(%rsp)
.LBB8_3:
	testq	%rbx, %rbx
	je	.LBB8_7
	movq	%r14, 8(%rsp)
	xorl	%r14d, %r14d
	movq	%r15, 16(%rsp)
	.p2align	4, 0x90
.LBB8_5:
	cmpq	%r12, %rbx
	movq	%r12, %r15
	cmovbq	%rbx, %r15
	leaq	(%r13,%r15,8), %rbp
	leaq	544(%rsp), %rdi
	movq	16(%rsp), %rsi
	movq	%r12, %rdx
	movq	%r13, %rcx
	movq	%r15, %r8
	callq	_ZN12lexical_core4atof9algorithm4math5large13karatsuba_mul17h5ea040f75d413ba9E
	movq	544(%rsp), %rdx
	leaq	24(%rsp), %rdi
	leaq	552(%rsp), %rsi
	movq	%r14, %rcx
	callq	_ZN12lexical_core4atof9algorithm4math5large9iadd_impl17h048cc00b6d5cdfa4E
	addq	%r15, %r14
	movq	%rbp, %r13
	subq	%r15, %rbx
	jne	.LBB8_5
	movq	24(%rsp), %rbp
	movq	8(%rsp), %r14
.LBB8_7:
	testq	%rbp, %rbp
	je	.LBB8_11
	addq	$-1, %rbp
	.p2align	4, 0x90
.LBB8_9:
	cmpq	$0, 32(%rsp,%rbp,8)
	jne	.LBB8_11
	movq	%rbp, 24(%rsp)
	addq	$-1, %rbp
	cmpq	$-1, %rbp
	jne	.LBB8_9
.LBB8_11:
	leaq	24(%rsp), %rsi
	movl	$520, %edx
	movq	%r14, %rdi
	callq	*memcpy@GOTPCREL(%rip)
	addq	$1064, %rsp
	.cfi_def_cfa_offset 56
	popq	%rbx
	.cfi_def_cfa_offset 48
	popq	%r12
	.cfi_def_cfa_offset 40
	popq	%r13
	.cfi_def_cfa_offset 32
	popq	%r14
	.cfi_def_cfa_offset 24
	popq	%r15
	.cfi_def_cfa_offset 16
	popq	%rbp
	.cfi_def_cfa_offset 8
	retq
.LBB8_12:
	.cfi_def_cfa_offset 1120
	leaq	anon.8d7f88ddceff33a78431340ac890e2e8.11.llvm.11096832420347508346(%rip), %rdi
	leaq	anon.8d7f88ddceff33a78431340ac890e2e8.10.llvm.11096832420347508346(%rip), %rdx
	movl	$40, %esi
	callq	_ZN3std9panicking11begin_panic17hc53bd1a638d5bd8cE
	ud2
.Lfunc_end8:
	.size	_ZN12lexical_core4atof9algorithm4math5large20karatsuba_uneven_mul17h1caad86287a91817E, .Lfunc_end8-_ZN12lexical_core4atof9algorithm4math5large20karatsuba_uneven_mul17h1caad86287a91817E
	.cfi_endproc

	.section	.text._ZN12lexical_core4atof9algorithm4math5large9iadd_impl17h048cc00b6d5cdfa4E,"ax",@progbits
	.p2align	4, 0x90
	.type	_ZN12lexical_core4atof9algorithm4math5large9iadd_impl17h048cc00b6d5cdfa4E,@function
_ZN12lexical_core4atof9algorithm4math5large9iadd_impl17h048cc00b6d5cdfa4E:
.Lfunc_begin9:
	.cfi_startproc
	pushq	%rbp
	.cfi_def_cfa_offset 16
	pushq	%r15
	.cfi_def_cfa_offset 24
	pushq	%r14
	.cfi_def_cfa_offset 32
	pushq	%r13
	.cfi_def_cfa_offset 40
	pushq	%r12
	.cfi_def_cfa_offset 48
	pushq	%rbx
	.cfi_def_cfa_offset 56
	pushq	%rax
	.cfi_def_cfa_offset 64
	.cfi_offset %rbx, -56
	.cfi_offset %r12, -48
	.cfi_offset %r13, -40
	.cfi_offset %r14, -32
	.cfi_offset %r15, -24
	.cfi_offset %rbp, -16
	movq	%rdx, %r15
	movq	%rsi, %r14
	movq	%rdi, %r12
	movq	(%rdi), %rsi
	movq	%rsi, %rax
	subq	%rcx, %rax
	cmpq	%rdx, %rax
	jae	.LBB9_7
	leaq	(%rcx,%r15), %r13
	cmpq	$65, %r13
	jae	.LBB9_25
	movq	%r13, %rdx
	subq	%rsi, %rdx
	jbe	.LBB9_5
	je	.LBB9_6
	leaq	(%r12,%rsi,8), %rdi
	addq	$8, %rdi
	shlq	$3, %rdx
	xorl	%esi, %esi
	movq	%rcx, %rbx
	callq	*memset@GOTPCREL(%rip)
	movq	%rbx, %rcx
	jmp	.LBB9_6
.LBB9_5:
	jae	.LBB9_7
.LBB9_6:
	movq	%r13, (%r12)
	movq	%r13, %rsi
.LBB9_7:
	cmpq	%rcx, %rsi
	jb	.LBB9_26
	leaq	(%r12,%rcx,8), %r9
	addq	$8, %r9
	leaq	(%r12,%rsi,8), %r8
	addq	$8, %r8
	subq	%r9, %r8
	shrq	$3, %r8
	cmpq	%r15, %r8
	cmovaq	%r15, %r8
	testq	%r8, %r8
	je	.LBB9_24
	xorl	%edx, %edx
	xorl	%edi, %edi
	.p2align	4, 0x90
.LBB9_10:
	movq	(%r9,%rdx,8), %rbp
	addq	(%r14,%rdx,8), %rbp
	leaq	1(%rdx), %rsi
	setb	%bl
	movq	%rbp, (%r9,%rdx,8)
	testb	%dil, %dil
	je	.LBB9_12
	addq	$1, %rbp
	setb	%al
	movq	%rbp, (%r9,%rdx,8)
	orb	%al, %bl
.LBB9_12:
	movq	%rsi, %rdx
	movl	%ebx, %edi
	cmpq	%r8, %rsi
	jb	.LBB9_10
	testb	%bl, %bl
	je	.LBB9_24
	leaq	(%rcx,%r15), %rdx
	movq	(%r12), %rax
	cmpq	%rdx, %rax
	jbe	.LBB9_15
	addq	$1, 8(%r12,%rdx,8)
	jae	.LBB9_24
	leaq	(%rcx,%r15), %rax
	addq	$1, %rax
	.p2align	4, 0x90
.LBB9_19:
	movq	(%r12), %rcx
	cmpq	%rcx, %rax
	jae	.LBB9_21
	addq	$1, 8(%r12,%rax,8)
	leaq	1(%rax), %rax
	jb	.LBB9_19
	jmp	.LBB9_24
.LBB9_15:
	cmpq	$64, %rax
	jae	.LBB9_27
	movq	$1, 8(%r12,%rax,8)
	jmp	.LBB9_23
.LBB9_21:
	cmpq	$64, %rcx
	jae	.LBB9_27
	movq	$1, 8(%r12,%rcx,8)
.LBB9_23:
	addq	$1, (%r12)
.LBB9_24:
	addq	$8, %rsp
	.cfi_def_cfa_offset 56
	popq	%rbx
	.cfi_def_cfa_offset 48
	popq	%r12
	.cfi_def_cfa_offset 40
	popq	%r13
	.cfi_def_cfa_offset 32
	popq	%r14
	.cfi_def_cfa_offset 24
	popq	%r15
	.cfi_def_cfa_offset 16
	popq	%rbp
	.cfi_def_cfa_offset 8
	retq
.LBB9_26:
	.cfi_def_cfa_offset 64
	movq	%rcx, %rdi
	callq	_ZN4core5slice22slice_index_order_fail17h0e662b493ebc9fb3E
	ud2
.LBB9_25:
	leaq	anon.8d7f88ddceff33a78431340ac890e2e8.11.llvm.11096832420347508346(%rip), %rdi
	leaq	anon.8d7f88ddceff33a78431340ac890e2e8.10.llvm.11096832420347508346(%rip), %rdx
	movl	$40, %esi
	callq	_ZN3std9panicking11begin_panic17hc53bd1a638d5bd8cE
	ud2
.LBB9_27:
	leaq	.Lanon.3db3eae2adbf5b8be24024acfd48bafc.2(%rip), %rdi
	leaq	.Lanon.3db3eae2adbf5b8be24024acfd48bafc.1(%rip), %rdx
	movl	$46, %esi
	callq	_ZN3std9panicking11begin_panic17hc53bd1a638d5bd8cE
	ud2
.Lfunc_end9:
	.size	_ZN12lexical_core4atof9algorithm4math5large9iadd_impl17h048cc00b6d5cdfa4E, .Lfunc_end9-_ZN12lexical_core4atof9algorithm4math5large9iadd_impl17h048cc00b6d5cdfa4E
	.cfi_endproc

	.section	.text._ZN12lexical_core4atof9algorithm4math5large4isub17hc96085420a2f8341E,"ax",@progbits
	.p2align	4, 0x90
	.type	_ZN12lexical_core4atof9algorithm4math5large4isub17hc96085420a2f8341E,@function
_ZN12lexical_core4atof9algorithm4math5large4isub17hc96085420a2f8341E:
.Lfunc_begin10:
	.cfi_startproc
	pushq	%rax
	.cfi_def_cfa_offset 16
	movq	(%rdi), %rax
	cmpq	%rdx, %rax
	movq	%rax, %r8
	cmovaq	%rdx, %r8
	testq	%r8, %r8
	je	.LBB10_17
	xorl	%eax, %eax
	xorl	%r11d, %r11d
	.p2align	4, 0x90
.LBB10_2:
	movq	8(%rdi,%rax,8), %rcx
	subq	(%rsi,%rax,8), %rcx
	leaq	1(%rax), %r10
	setb	%r9b
	movq	%rcx, 8(%rdi,%rax,8)
	testb	%r11b, %r11b
	je	.LBB10_4
	subq	$1, %rcx
	setb	%r11b
	movq	%rcx, 8(%rdi,%rax,8)
	orb	%r11b, %r9b
.LBB10_4:
	movq	%r10, %rax
	movl	%r9d, %r11d
	cmpq	%r8, %r10
	jb	.LBB10_2
	movq	(%rdi), %rax
	testb	%r9b, %r9b
	je	.LBB10_17
	cmpq	%rdx, %rax
	jbe	.LBB10_16
	subq	$1, 8(%rdi,%rdx,8)
	jae	.LBB10_11
	addq	$1, %rdx
	.p2align	4, 0x90
.LBB10_9:
	movq	(%rdi), %rax
	cmpq	%rax, %rdx
	jae	.LBB10_12
	subq	$1, 8(%rdi,%rdx,8)
	leaq	1(%rdx), %rdx
	jb	.LBB10_9
.LBB10_11:
	movq	(%rdi), %rax
.LBB10_12:
	testq	%rax, %rax
	je	.LBB10_21
	addq	$-1, %rax
	.p2align	4, 0x90
.LBB10_14:
	cmpq	$0, 8(%rdi,%rax,8)
	jne	.LBB10_21
	movq	%rax, (%rdi)
	addq	$-1, %rax
	cmpq	$-1, %rax
	jne	.LBB10_14
	jmp	.LBB10_21
.LBB10_17:
	testq	%rax, %rax
	je	.LBB10_21
	addq	$-1, %rax
	.p2align	4, 0x90
.LBB10_19:
	cmpq	$0, 8(%rdi,%rax,8)
	jne	.LBB10_21
	movq	%rax, (%rdi)
	addq	$-1, %rax
	cmpq	$-1, %rax
	jne	.LBB10_19
.LBB10_21:
	popq	%rax
	.cfi_def_cfa_offset 8
	retq
.LBB10_16:
	.cfi_def_cfa_offset 16
	leaq	anon.48e8eea5eef5500cf109e817756c3727.6.llvm.2114689993178388459(%rip), %rdi
	movq	%rdx, %rsi
	movq	%rax, %rdx
	callq	_ZN4core9panicking18panic_bounds_check17h620ba7e4e283471aE
	ud2
.Lfunc_end10:
	.size	_ZN12lexical_core4atof9algorithm4math5large4isub17hc96085420a2f8341E, .Lfunc_end10-_ZN12lexical_core4atof9algorithm4math5large4isub17hc96085420a2f8341E
	.cfi_endproc

	.section	.text._ZN3std9panicking11begin_panic17hc53bd1a638d5bd8cE,"ax",@progbits
	.p2align	4, 0x90
	.type	_ZN3std9panicking11begin_panic17hc53bd1a638d5bd8cE,@function
_ZN3std9panicking11begin_panic17hc53bd1a638d5bd8cE:
.Lfunc_begin11:
	.cfi_startproc
	subq	$24, %rsp
	.cfi_def_cfa_offset 32
	movq	%rdx, %rcx
	movq	%rdi, 8(%rsp)
	movq	%rsi, 16(%rsp)
	leaq	.Lanon.6102c4c913d3f05b4cfae5721eef2f9c.0(%rip), %rsi
	leaq	8(%rsp), %rdi
	xorl	%edx, %edx
	callq	_ZN3std9panicking20rust_panic_with_hook17h8cbdfe43764887beE
	ud2
.Lfunc_end11:
	.size	_ZN3std9panicking11begin_panic17hc53bd1a638d5bd8cE, .Lfunc_end11-_ZN3std9panicking11begin_panic17hc53bd1a638d5bd8cE
	.cfi_endproc

	.section	".text._ZN91_$LT$std..panicking..begin_panic..PanicPayload$LT$A$GT$$u20$as$u20$core..panic..BoxMeUp$GT$9box_me_up17hb05f4da7624bda92E","ax",@progbits
	.p2align	4, 0x90
	.type	_ZN91_$LT$std..panicking..begin_panic..PanicPayload$LT$A$GT$$u20$as$u20$core..panic..BoxMeUp$GT$9box_me_up17hb05f4da7624bda92E,@function
_ZN91_$LT$std..panicking..begin_panic..PanicPayload$LT$A$GT$$u20$as$u20$core..panic..BoxMeUp$GT$9box_me_up17hb05f4da7624bda92E:
.Lfunc_begin12:
	.cfi_startproc
	pushq	%r14
	.cfi_def_cfa_offset 16
	pushq	%rbx
	.cfi_def_cfa_offset 24
	pushq	%rax
	.cfi_def_cfa_offset 32
	.cfi_offset %rbx, -24
	.cfi_offset %r14, -16
	movq	(%rdi), %rbx
	movq	8(%rdi), %r14
	movq	$0, (%rdi)
	testq	%rbx, %rbx
	je	.LBB12_1
	movl	$16, %edi
	callq	*malloc@GOTPCREL(%rip)
	testq	%rax, %rax
	je	.LBB12_5
	movq	%rbx, (%rax)
	movq	%r14, 8(%rax)
	leaq	.Lanon.6102c4c913d3f05b4cfae5721eef2f9c.1(%rip), %rdx
	addq	$8, %rsp
	.cfi_def_cfa_offset 24
	popq	%rbx
	.cfi_def_cfa_offset 16
	popq	%r14
	.cfi_def_cfa_offset 8
	retq
.LBB12_1:
	.cfi_def_cfa_offset 32
	movl	$1, %eax
	leaq	.Lanon.6102c4c913d3f05b4cfae5721eef2f9c.3(%rip), %rdx
	addq	$8, %rsp
	.cfi_def_cfa_offset 24
	popq	%rbx
	.cfi_def_cfa_offset 16
	popq	%r14
	.cfi_def_cfa_offset 8
	retq
.LBB12_5:
	.cfi_def_cfa_offset 32
	movl	$16, %edi
	movl	$8, %esi
	callq	_ZN5alloc5alloc18handle_alloc_error17h2fef2e8fe3cbc446E
	ud2
.Lfunc_end12:
	.size	_ZN91_$LT$std..panicking..begin_panic..PanicPayload$LT$A$GT$$u20$as$u20$core..panic..BoxMeUp$GT$9box_me_up17hb05f4da7624bda92E, .Lfunc_end12-_ZN91_$LT$std..panicking..begin_panic..PanicPayload$LT$A$GT$$u20$as$u20$core..panic..BoxMeUp$GT$9box_me_up17hb05f4da7624bda92E
	.cfi_endproc

	.section	".text._ZN91_$LT$std..panicking..begin_panic..PanicPayload$LT$A$GT$$u20$as$u20$core..panic..BoxMeUp$GT$3get17h4e3d9896140eebf3E","ax",@progbits
	.p2align	4, 0x90
	.type	_ZN91_$LT$std..panicking..begin_panic..PanicPayload$LT$A$GT$$u20$as$u20$core..panic..BoxMeUp$GT$3get17h4e3d9896140eebf3E,@function
_ZN91_$LT$std..panicking..begin_panic..PanicPayload$LT$A$GT$$u20$as$u20$core..panic..BoxMeUp$GT$3get17h4e3d9896140eebf3E:
.Lfunc_begin13:
	.cfi_startproc
	cmpq	$0, (%rdi)
	leaq	.Lanon.6102c4c913d3f05b4cfae5721eef2f9c.3(%rip), %rax
	leaq	.Lanon.6102c4c913d3f05b4cfae5721eef2f9c.1(%rip), %rdx
	cmoveq	%rax, %rdx
	leaq	.Lanon.32b3edf3a52fcde89cc073c0c773f7a5.71(%rip), %rax
	cmovneq	%rdi, %rax
	retq
.Lfunc_end13:
	.size	_ZN91_$LT$std..panicking..begin_panic..PanicPayload$LT$A$GT$$u20$as$u20$core..panic..BoxMeUp$GT$3get17h4e3d9896140eebf3E, .Lfunc_end13-_ZN91_$LT$std..panicking..begin_panic..PanicPayload$LT$A$GT$$u20$as$u20$core..panic..BoxMeUp$GT$3get17h4e3d9896140eebf3E
	.cfi_endproc

	.section	.text.is_success,"ax",@progbits
	.globl	is_success
	.p2align	4, 0x90
	.type	is_success,@function
is_success:
.Lfunc_begin14:
	.cfi_startproc
	testl	%edi, %edi
	sete	%al
	retq
.Lfunc_end14:
	.size	is_success, .Lfunc_end14-is_success
	.cfi_endproc

	.section	.text.is_overflow,"ax",@progbits
	.globl	is_overflow
	.p2align	4, 0x90
	.type	is_overflow,@function
is_overflow:
.Lfunc_begin15:
	.cfi_startproc
	cmpl	$-1, %edi
	sete	%al
	retq
.Lfunc_end15:
	.size	is_overflow, .Lfunc_end15-is_overflow
	.cfi_endproc

	.section	.text.is_invalid_digit,"ax",@progbits
	.globl	is_invalid_digit
	.p2align	4, 0x90
	.type	is_invalid_digit,@function
is_invalid_digit:
.Lfunc_begin16:
	.cfi_startproc
	cmpl	$-2, %edi
	sete	%al
	retq
.Lfunc_end16:
	.size	is_invalid_digit, .Lfunc_end16-is_invalid_digit
	.cfi_endproc

	.section	.text.is_empty,"ax",@progbits
	.globl	is_empty
	.p2align	4, 0x90
	.type	is_empty,@function
is_empty:
.Lfunc_begin17:
	.cfi_startproc
	cmpl	$-3, %edi
	sete	%al
	retq
.Lfunc_end17:
	.size	is_empty, .Lfunc_end17-is_empty
	.cfi_endproc

	.section	.text.get_nan_string_ffi,"ax",@progbits
	.globl	get_nan_string_ffi
	.p2align	4, 0x90
	.type	get_nan_string_ffi,@function
get_nan_string_ffi:
.Lfunc_begin18:
	.cfi_startproc
	movl	$-1, %eax
	testq	%rdi, %rdi
	je	.LBB18_3
	testq	%rsi, %rsi
	je	.LBB18_3
	movq	_ZN12lexical_core4util6config10NAN_STRING17h51ff9acbf15e5699E(%rip), %rax
	leaq	_ZN12lexical_core4util6config10NAN_STRING17h51ff9acbf15e5699E+8(%rip), %rcx
	movq	%rcx, (%rdi)
	movq	%rax, (%rsi)
	xorl	%eax, %eax
.LBB18_3:
	retq
.Lfunc_end18:
	.size	get_nan_string_ffi, .Lfunc_end18-get_nan_string_ffi
	.cfi_endproc

	.section	.text.set_nan_string_ffi,"ax",@progbits
	.globl	set_nan_string_ffi
	.p2align	4, 0x90
	.type	set_nan_string_ffi,@function
set_nan_string_ffi:
.Lfunc_begin19:
	.cfi_startproc
	pushq	%rbx
	.cfi_def_cfa_offset 16
	.cfi_offset %rbx, -16
	testq	%rdi, %rdi
	je	.LBB19_1
	movq	%rsi, %rbx
	cmpq	$64, %rsi
	jae	.LBB19_5
	movq	%rdi, %rsi
	leaq	_ZN12lexical_core4util6config10NAN_STRING17h51ff9acbf15e5699E+8(%rip), %rdi
	movq	%rbx, %rdx
	callq	*memcpy@GOTPCREL(%rip)
	movq	%rbx, _ZN12lexical_core4util6config10NAN_STRING17h51ff9acbf15e5699E(%rip)
	xorl	%eax, %eax
	popq	%rbx
	.cfi_def_cfa_offset 8
	retq
.LBB19_1:
	.cfi_def_cfa_offset 16
	movl	$-1, %eax
	popq	%rbx
	.cfi_def_cfa_offset 8
	retq
.LBB19_5:
	.cfi_def_cfa_offset 16
	leaq	.Lanon.d40ce0d908814db1d08d1ec60e7ece38.5(%rip), %rdi
	leaq	.Lanon.d40ce0d908814db1d08d1ec60e7ece38.4(%rip), %rdx
	movl	$48, %esi
	callq	_ZN3std9panicking11begin_panic17hc53bd1a638d5bd8cE
	ud2
.Lfunc_end19:
	.size	set_nan_string_ffi, .Lfunc_end19-set_nan_string_ffi
	.cfi_endproc

	.section	.text.get_inf_string_ffi,"ax",@progbits
	.globl	get_inf_string_ffi
	.p2align	4, 0x90
	.type	get_inf_string_ffi,@function
get_inf_string_ffi:
.Lfunc_begin20:
	.cfi_startproc
	movl	$-1, %eax
	testq	%rdi, %rdi
	je	.LBB20_3
	testq	%rsi, %rsi
	je	.LBB20_3
	movq	_ZN12lexical_core4util6config10INF_STRING17h27f46d0080bd297dE(%rip), %rax
	leaq	_ZN12lexical_core4util6config10INF_STRING17h27f46d0080bd297dE+8(%rip), %rcx
	movq	%rcx, (%rdi)
	movq	%rax, (%rsi)
	xorl	%eax, %eax
.LBB20_3:
	retq
.Lfunc_end20:
	.size	get_inf_string_ffi, .Lfunc_end20-get_inf_string_ffi
	.cfi_endproc

	.section	.text.set_inf_string_ffi,"ax",@progbits
	.globl	set_inf_string_ffi
	.p2align	4, 0x90
	.type	set_inf_string_ffi,@function
set_inf_string_ffi:
.Lfunc_begin21:
	.cfi_startproc
	pushq	%rbx
	.cfi_def_cfa_offset 16
	.cfi_offset %rbx, -16
	testq	%rdi, %rdi
	je	.LBB21_1
	movq	%rsi, %rbx
	cmpq	$64, %rsi
	jae	.LBB21_5
	movq	%rdi, %rsi
	leaq	_ZN12lexical_core4util6config10INF_STRING17h27f46d0080bd297dE+8(%rip), %rdi
	movq	%rbx, %rdx
	callq	*memcpy@GOTPCREL(%rip)
	movq	%rbx, _ZN12lexical_core4util6config10INF_STRING17h27f46d0080bd297dE(%rip)
	xorl	%eax, %eax
	popq	%rbx
	.cfi_def_cfa_offset 8
	retq
.LBB21_1:
	.cfi_def_cfa_offset 16
	movl	$-1, %eax
	popq	%rbx
	.cfi_def_cfa_offset 8
	retq
.LBB21_5:
	.cfi_def_cfa_offset 16
	leaq	.Lanon.d40ce0d908814db1d08d1ec60e7ece38.5(%rip), %rdi
	leaq	.Lanon.d40ce0d908814db1d08d1ec60e7ece38.4(%rip), %rdx
	movl	$48, %esi
	callq	_ZN3std9panicking11begin_panic17hc53bd1a638d5bd8cE
	ud2
.Lfunc_end21:
	.size	set_inf_string_ffi, .Lfunc_end21-set_inf_string_ffi
	.cfi_endproc

	.section	.text.get_infinity_string_ffi,"ax",@progbits
	.globl	get_infinity_string_ffi
	.p2align	4, 0x90
	.type	get_infinity_string_ffi,@function
get_infinity_string_ffi:
.Lfunc_begin22:
	.cfi_startproc
	movl	$-1, %eax
	testq	%rdi, %rdi
	je	.LBB22_3
	testq	%rsi, %rsi
	je	.LBB22_3
	movq	_ZN12lexical_core4util6config15INFINITY_STRING17hc320a1f3bc302f3dE(%rip), %rax
	leaq	_ZN12lexical_core4util6config15INFINITY_STRING17hc320a1f3bc302f3dE+8(%rip), %rcx
	movq	%rcx, (%rdi)
	movq	%rax, (%rsi)
	xorl	%eax, %eax
.LBB22_3:
	retq
.Lfunc_end22:
	.size	get_infinity_string_ffi, .Lfunc_end22-get_infinity_string_ffi
	.cfi_endproc

	.section	.text.set_infinity_string_ffi,"ax",@progbits
	.globl	set_infinity_string_ffi
	.p2align	4, 0x90
	.type	set_infinity_string_ffi,@function
set_infinity_string_ffi:
.Lfunc_begin23:
	.cfi_startproc
	pushq	%rbx
	.cfi_def_cfa_offset 16
	.cfi_offset %rbx, -16
	testq	%rdi, %rdi
	je	.LBB23_1
	movq	%rsi, %rbx
	cmpq	$64, %rsi
	jae	.LBB23_5
	movq	%rdi, %rsi
	leaq	_ZN12lexical_core4util6config15INFINITY_STRING17hc320a1f3bc302f3dE+8(%rip), %rdi
	movq	%rbx, %rdx
	callq	*memcpy@GOTPCREL(%rip)
	movq	%rbx, _ZN12lexical_core4util6config15INFINITY_STRING17hc320a1f3bc302f3dE(%rip)
	xorl	%eax, %eax
	popq	%rbx
	.cfi_def_cfa_offset 8
	retq
.LBB23_1:
	.cfi_def_cfa_offset 16
	movl	$-1, %eax
	popq	%rbx
	.cfi_def_cfa_offset 8
	retq
.LBB23_5:
	.cfi_def_cfa_offset 16
	leaq	.Lanon.d40ce0d908814db1d08d1ec60e7ece38.5(%rip), %rdi
	leaq	.Lanon.d40ce0d908814db1d08d1ec60e7ece38.4(%rip), %rdx
	movl	$48, %esi
	callq	_ZN3std9panicking11begin_panic17hc53bd1a638d5bd8cE
	ud2
.Lfunc_end23:
	.size	set_infinity_string_ffi, .Lfunc_end23-set_infinity_string_ffi
	.cfi_endproc

	.section	.text._ZN12lexical_core4atof9algorithm4math4Hi644hi6417hb3712d0aa1be5446E,"ax",@progbits
	.p2align	4, 0x90
	.type	_ZN12lexical_core4atof9algorithm4math4Hi644hi6417hb3712d0aa1be5446E,@function
_ZN12lexical_core4atof9algorithm4math4Hi644hi6417hb3712d0aa1be5446E:
.Lfunc_begin24:
	.cfi_startproc
	cmpq	$4, %rsi
	ja	.LBB24_54
	xorl	%edx, %edx
	leaq	.LJTI24_0(%rip), %rax
	movslq	(%rax,%rsi,4), %rcx
	addq	%rax, %rcx
	xorl	%eax, %eax
	jmpq	*%rcx
.LBB24_2:
	movq	(%rdi), %rax
	testq	%rax, %rax
	je	.LBB24_3
	bsrq	%rax, %rcx
	xorq	$63, %rcx
	shlq	%cl, %rax
	xorl	%edx, %edx
	retq
.LBB24_54:
	movq	-16(%rdi,%rsi,8), %r9
	movq	-8(%rdi,%rsi,8), %rax
	testq	%rax, %rax
	je	.LBB24_55
	bsrq	%rax, %rdx
	xorq	$63, %rdx
	testq	%rdx, %rdx
	je	.LBB24_58
.LBB24_59:
	movl	%edx, %r8d
	negl	%r8d
	andl	$63, %edx
	movl	%edx, %ecx
	shlq	%cl, %rax
	movq	%r9, %r10
	movl	%r8d, %ecx
	shrq	%cl, %r10
	orq	%r10, %rax
	jmp	.LBB24_60
.LBB24_6:
	movq	(%rdi), %r8
	movq	8(%rdi), %rax
	testq	%rax, %rax
	je	.LBB24_7
	bsrq	%rax, %rdx
	xorq	$63, %rdx
	testq	%rdx, %rdx
	je	.LBB24_10
.LBB24_11:
	movl	%edx, %r9d
	negl	%r9d
	andl	$63, %edx
	movl	%edx, %ecx
	shlq	%cl, %rax
	movq	%r8, %rsi
	movl	%r9d, %ecx
	shrq	%cl, %rsi
	orq	%rsi, %rax
	jmp	.LBB24_12
.LBB24_22:
	movq	8(%rdi), %r8
	movq	16(%rdi), %rax
	testq	%rax, %rax
	je	.LBB24_23
	bsrq	%rax, %rdx
	xorq	$63, %rdx
	testq	%rdx, %rdx
	je	.LBB24_26
.LBB24_27:
	movl	%edx, %r9d
	negl	%r9d
	andl	$63, %edx
	movl	%edx, %ecx
	shlq	%cl, %rax
	movq	%r8, %rsi
	movl	%r9d, %ecx
	shrq	%cl, %rsi
	orq	%rsi, %rax
	jmp	.LBB24_28
.LBB24_38:
	movq	16(%rdi), %r8
	movq	24(%rdi), %rax
	testq	%rax, %rax
	je	.LBB24_39
	bsrq	%rax, %rdx
	xorq	$63, %rdx
	testq	%rdx, %rdx
	je	.LBB24_42
.LBB24_43:
	movl	%edx, %r9d
	negl	%r9d
	andl	$63, %edx
	movl	%edx, %ecx
	shlq	%cl, %rax
	movq	%r8, %rsi
	movl	%r9d, %ecx
	shrq	%cl, %rsi
	orq	%rsi, %rax
	jmp	.LBB24_44
.LBB24_3:
	movl	$64, %ecx
	shlq	%cl, %rax
	xorl	%edx, %edx
	retq
.LBB24_55:
	movl	$64, %edx
	testq	%rdx, %rdx
	jne	.LBB24_59
.LBB24_58:
	xorl	%edx, %edx
.LBB24_60:
	movl	%edx, %ecx
	shlq	%cl, %r9
	movb	$1, %dl
	testq	%r9, %r9
	jne	.LBB24_70
	shlq	$3, %rsi
	leaq	-16(%rdi), %r8
	.p2align	4, 0x90
.LBB24_62:
	leaq	(%r8,%rsi), %r9
	movq	%r9, %rcx
	subq	%rdi, %rcx
	cmpq	$31, %rcx
	jbe	.LBB24_67
	cmpq	$0, -8(%r9)
	jne	.LBB24_70
	cmpq	$0, -16(%r9)
	jne	.LBB24_70
	cmpq	$0, -24(%r9)
	jne	.LBB24_70
	addq	$-32, %rsi
	cmpq	$0, -32(%r9)
	je	.LBB24_62
	jmp	.LBB24_70
	.p2align	4, 0x90
.LBB24_67:
	cmpq	$16, %rsi
	je	.LBB24_68
	cmpq	$0, -24(%rdi,%rsi)
	leaq	-8(%rsi), %rsi
	je	.LBB24_67
	jmp	.LBB24_70
.LBB24_7:
	movl	$64, %edx
	testq	%rdx, %rdx
	jne	.LBB24_11
.LBB24_10:
	xorl	%edx, %edx
.LBB24_12:
	movl	%edx, %ecx
	shlq	%cl, %r8
	movb	$1, %dl
	testq	%r8, %r8
	jne	.LBB24_70
	leaq	-32(%rdi), %rsi
	xorl	%r8d, %r8d
	movq	%rdi, %rcx
	.p2align	4, 0x90
.LBB24_14:
	subq	%rdi, %rcx
	cmpq	$31, %rcx
	jbe	.LBB24_20
	cmpq	$0, 24(%rsi)
	jne	.LBB24_70
	cmpq	$0, 16(%rsi)
	jne	.LBB24_70
	cmpq	$0, 8(%rsi)
	jne	.LBB24_70
	addq	$-4, %r8
	cmpq	$0, (%rsi)
	movq	%rsi, %rcx
	leaq	-32(%rsi), %rsi
	je	.LBB24_14
	jmp	.LBB24_70
	.p2align	4, 0x90
.LBB24_20:
	testq	%r8, %r8
	je	.LBB24_21
	cmpq	$0, -8(%rdi,%r8,8)
	leaq	-1(%r8), %r8
	je	.LBB24_20
	jmp	.LBB24_70
.LBB24_23:
	movl	$64, %edx
	testq	%rdx, %rdx
	jne	.LBB24_27
.LBB24_26:
	xorl	%edx, %edx
.LBB24_28:
	movl	%edx, %ecx
	shlq	%cl, %r8
	movb	$1, %dl
	testq	%r8, %r8
	jne	.LBB24_70
	movl	$8, %ecx
	.p2align	4, 0x90
.LBB24_30:
	cmpq	$31, %rcx
	jbe	.LBB24_36
	leaq	(%rdi,%rcx), %rsi
	cmpq	$0, -8(%rsi)
	jne	.LBB24_70
	cmpq	$0, -16(%rsi)
	jne	.LBB24_70
	cmpq	$0, -24(%rsi)
	jne	.LBB24_70
	addq	$-32, %rcx
	cmpq	$0, -32(%rsi)
	je	.LBB24_30
	jmp	.LBB24_70
	.p2align	4, 0x90
.LBB24_36:
	testq	%rcx, %rcx
	je	.LBB24_37
	cmpq	$0, -8(%rdi,%rcx)
	leaq	-8(%rcx), %rcx
	je	.LBB24_36
	jmp	.LBB24_70
.LBB24_39:
	movl	$64, %edx
	testq	%rdx, %rdx
	jne	.LBB24_43
.LBB24_42:
	xorl	%edx, %edx
.LBB24_44:
	movl	%edx, %ecx
	shlq	%cl, %r8
	movb	$1, %dl
	testq	%r8, %r8
	je	.LBB24_45
.LBB24_70:
	retq
.LBB24_45:
	movl	$16, %ecx
	.p2align	4, 0x90
.LBB24_46:
	cmpq	$31, %rcx
	jbe	.LBB24_52
	leaq	(%rdi,%rcx), %rsi
	cmpq	$0, -8(%rsi)
	jne	.LBB24_70
	cmpq	$0, -16(%rsi)
	jne	.LBB24_70
	cmpq	$0, -24(%rsi)
	jne	.LBB24_70
	addq	$-32, %rcx
	cmpq	$0, -32(%rsi)
	je	.LBB24_46
	jmp	.LBB24_70
	.p2align	4, 0x90
.LBB24_52:
	testq	%rcx, %rcx
	je	.LBB24_53
	cmpq	$0, -8(%rdi,%rcx)
	leaq	-8(%rcx), %rcx
	je	.LBB24_52
	jmp	.LBB24_70
.LBB24_21:
	xorl	%edx, %edx
	retq
.LBB24_37:
	xorl	%edx, %edx
	retq
.LBB24_53:
	xorl	%edx, %edx
	retq
.LBB24_68:
	xorl	%edx, %edx
	retq
.Lfunc_end24:
	.size	_ZN12lexical_core4atof9algorithm4math4Hi644hi6417hb3712d0aa1be5446E, .Lfunc_end24-_ZN12lexical_core4atof9algorithm4math4Hi644hi6417hb3712d0aa1be5446E
	.cfi_endproc
	.section	.rodata._ZN12lexical_core4atof9algorithm4math4Hi644hi6417hb3712d0aa1be5446E,"a",@progbits
	.p2align	2
.LJTI24_0:
	.long	.LBB24_70-.LJTI24_0
	.long	.LBB24_2-.LJTI24_0
	.long	.LBB24_6-.LJTI24_0
	.long	.LBB24_22-.LJTI24_0
	.long	.LBB24_38-.LJTI24_0

	.section	.rodata.cst16,"aM",@progbits,16
	.p2align	4
.LCPI25_0:
	.long	2147483648
	.long	2147483648
	.long	2147483648
	.long	2147483648
	.section	.text.f32toa_range,"ax",@progbits
	.globl	f32toa_range
	.p2align	4, 0x90
	.type	f32toa_range,@function
f32toa_range:
.Lfunc_begin25:
	.cfi_startproc
	pushq	%r15
	.cfi_def_cfa_offset 16
	pushq	%r14
	.cfi_def_cfa_offset 24
	pushq	%rbx
	.cfi_def_cfa_offset 32
	.cfi_offset %rbx, -32
	.cfi_offset %r14, -24
	.cfi_offset %r15, -16
	cmpq	%rsi, %rdi
	ja	.LBB25_30
	movq	%rdi, %rbx
	testq	%rdi, %rdi
	je	.LBB25_30
	movq	%rsi, %r14
	testq	%rsi, %rsi
	je	.LBB25_30
	subq	%rbx, %r14
	cmpq	$63, %r14
	jbe	.LBB25_31
	movd	%xmm0, %eax
	testl	%eax, %eax
	js	.LBB25_16
	xorps	%xmm1, %xmm1
	ucomiss	%xmm1, %xmm0
	jne	.LBB25_7
	jp	.LBB25_7
	movb	.Lanon.4ad8ee50b6a2ced61e0d449a3a817c0d.0+2(%rip), %al
	movb	%al, 2(%rbx)
	movzwl	.Lanon.4ad8ee50b6a2ced61e0d449a3a817c0d.0(%rip), %eax
	movw	%ax, (%rbx)
	movl	$3, %r15d
	cmpq	%r14, %r15
	jbe	.LBB25_29
	jmp	.LBB25_32
.LBB25_16:
	movb	$45, (%rbx)
	leaq	1(%rbx), %rdi
	xorps	%xmm1, %xmm1
	ucomiss	%xmm1, %xmm0
	jne	.LBB25_18
	jp	.LBB25_18
	movb	.Lanon.4ad8ee50b6a2ced61e0d449a3a817c0d.0+2(%rip), %al
	movb	%al, 2(%rdi)
	movzwl	.Lanon.4ad8ee50b6a2ced61e0d449a3a817c0d.0(%rip), %eax
	movw	%ax, (%rdi)
	movl	$3, %r15d
	addq	$1, %r15
	cmpq	%r14, %r15
	jbe	.LBB25_29
	jmp	.LBB25_32
.LBB25_7:
	movl	%eax, %ecx
	andl	$2139095040, %ecx
	testl	$8388607, %eax
	je	.LBB25_12
	cmpl	$2139095040, %ecx
	jne	.LBB25_12
	movq	_ZN12lexical_core4util6config10NAN_STRING17h51ff9acbf15e5699E(%rip), %r15
	cmpq	%r14, %r15
	ja	.LBB25_32
	leaq	_ZN12lexical_core4util6config10NAN_STRING17h51ff9acbf15e5699E+8(%rip), %rsi
	jmp	.LBB25_11
.LBB25_18:
	pxor	.LCPI25_0(%rip), %xmm0
	leaq	-1(%r14), %rsi
	movd	%xmm0, %ecx
	movl	%ecx, %eax
	andl	$2139095040, %eax
	testl	$8388607, %ecx
	je	.LBB25_23
	cmpl	$2139095040, %eax
	jne	.LBB25_23
	movq	_ZN12lexical_core4util6config10NAN_STRING17h51ff9acbf15e5699E(%rip), %r15
	cmpq	%rsi, %r15
	ja	.LBB25_33
	leaq	_ZN12lexical_core4util6config10NAN_STRING17h51ff9acbf15e5699E+8(%rip), %rsi
	jmp	.LBB25_22
.LBB25_12:
	cmpl	$2139095040, %ecx
	jne	.LBB25_15
	movq	_ZN12lexical_core4util6config10INF_STRING17h27f46d0080bd297dE(%rip), %r15
	cmpq	%r14, %r15
	ja	.LBB25_32
	leaq	_ZN12lexical_core4util6config10INF_STRING17h27f46d0080bd297dE+8(%rip), %rsi
.LBB25_11:
	movq	%rbx, %rdi
	movq	%r15, %rdx
	callq	*memcpy@GOTPCREL(%rip)
	cmpq	%r14, %r15
	jbe	.LBB25_29
	jmp	.LBB25_32
.LBB25_23:
	cmpl	$2139095040, %eax
	jne	.LBB25_26
	movq	_ZN12lexical_core4util6config10INF_STRING17h27f46d0080bd297dE(%rip), %r15
	cmpq	%rsi, %r15
	ja	.LBB25_33
	leaq	_ZN12lexical_core4util6config10INF_STRING17h27f46d0080bd297dE+8(%rip), %rsi
.LBB25_22:
	movq	%r15, %rdx
	callq	*memcpy@GOTPCREL(%rip)
	addq	$1, %r15
	cmpq	%r14, %r15
	jbe	.LBB25_29
	jmp	.LBB25_32
.LBB25_15:
	movq	%rbx, %rdi
	callq	_ZN3ryu6pretty14f2s_buffered_n17h924418f5043c44feE
	movq	%rax, %r15
	cmpq	%r14, %r15
	jbe	.LBB25_29
	jmp	.LBB25_32
.LBB25_26:
	callq	_ZN3ryu6pretty14f2s_buffered_n17h924418f5043c44feE
	movq	%rax, %r15
	addq	$1, %r15
	cmpq	%r14, %r15
	ja	.LBB25_32
.LBB25_29:
	addq	%r15, %rbx
	movq	%rbx, %rax
	popq	%rbx
	.cfi_def_cfa_offset 24
	popq	%r14
	.cfi_def_cfa_offset 16
	popq	%r15
	.cfi_def_cfa_offset 8
	retq
.LBB25_30:
	.cfi_def_cfa_offset 32
	leaq	.Lanon.a8e4ed8328978708c0e7fc28f693712c.2(%rip), %rdi
	leaq	.Lanon.4edb37075cecff49e9140a01b6f0446c.6(%rip), %rdx
	movl	$70, %esi
	callq	_ZN3std9panicking11begin_panic17hc53bd1a638d5bd8cE
	ud2
.LBB25_32:
	movq	%r15, %rdi
	movq	%r14, %rsi
	callq	_ZN4core5slice20slice_index_len_fail17haa6628c105c1e693E
	ud2
.LBB25_31:
	leaq	.Lanon.d40ce0d908814db1d08d1ec60e7ece38.38(%rip), %rdi
	leaq	.Lanon.d40ce0d908814db1d08d1ec60e7ece38.37(%rip), %rdx
	movl	$45, %esi
	callq	_ZN3std9panicking11begin_panic17hc53bd1a638d5bd8cE
	ud2
.LBB25_33:
	movq	%r15, %rdi
	callq	_ZN4core5slice20slice_index_len_fail17haa6628c105c1e693E
	ud2
.Lfunc_end25:
	.size	f32toa_range, .Lfunc_end25-f32toa_range
	.cfi_endproc

	.section	.rodata.cst16,"aM",@progbits,16
	.p2align	4
.LCPI26_0:
	.quad	-9223372036854775808
	.quad	-9223372036854775808
	.section	.text.f64toa_range,"ax",@progbits
	.globl	f64toa_range
	.p2align	4, 0x90
	.type	f64toa_range,@function
f64toa_range:
.Lfunc_begin26:
	.cfi_startproc
	pushq	%r15
	.cfi_def_cfa_offset 16
	pushq	%r14
	.cfi_def_cfa_offset 24
	pushq	%rbx
	.cfi_def_cfa_offset 32
	.cfi_offset %rbx, -32
	.cfi_offset %r14, -24
	.cfi_offset %r15, -16
	cmpq	%rsi, %rdi
	ja	.LBB26_30
	movq	%rdi, %rbx
	testq	%rdi, %rdi
	je	.LBB26_30
	movq	%rsi, %r14
	testq	%rsi, %rsi
	je	.LBB26_30
	subq	%rbx, %r14
	cmpq	$63, %r14
	jbe	.LBB26_31
	movq	%xmm0, %rax
	testq	%rax, %rax
	js	.LBB26_16
	xorps	%xmm1, %xmm1
	ucomisd	%xmm1, %xmm0
	jne	.LBB26_7
	jp	.LBB26_7
	movb	.Lanon.4ad8ee50b6a2ced61e0d449a3a817c0d.0+2(%rip), %al
	movb	%al, 2(%rbx)
	movzwl	.Lanon.4ad8ee50b6a2ced61e0d449a3a817c0d.0(%rip), %eax
	movw	%ax, (%rbx)
	movl	$3, %r15d
	cmpq	%r14, %r15
	jbe	.LBB26_29
	jmp	.LBB26_32
.LBB26_16:
	movb	$45, (%rbx)
	leaq	1(%rbx), %rdi
	xorps	%xmm1, %xmm1
	ucomisd	%xmm1, %xmm0
	jne	.LBB26_18
	jp	.LBB26_18
	movb	.Lanon.4ad8ee50b6a2ced61e0d449a3a817c0d.0+2(%rip), %al
	movb	%al, 2(%rdi)
	movzwl	.Lanon.4ad8ee50b6a2ced61e0d449a3a817c0d.0(%rip), %eax
	movw	%ax, (%rdi)
	movl	$3, %r15d
	addq	$1, %r15
	cmpq	%r14, %r15
	jbe	.LBB26_29
	jmp	.LBB26_32
.LBB26_7:
	movabsq	$9218868437227405312, %rcx
	movq	%rax, %rdx
	andq	%rcx, %rdx
	shlq	$12, %rax
	je	.LBB26_12
	cmpq	%rcx, %rdx
	jne	.LBB26_12
	movq	_ZN12lexical_core4util6config10NAN_STRING17h51ff9acbf15e5699E(%rip), %r15
	cmpq	%r14, %r15
	ja	.LBB26_32
	leaq	_ZN12lexical_core4util6config10NAN_STRING17h51ff9acbf15e5699E+8(%rip), %rsi
	jmp	.LBB26_11
.LBB26_18:
	pxor	.LCPI26_0(%rip), %xmm0
	leaq	-1(%r14), %rsi
	movabsq	$9218868437227405312, %rax
	movq	%xmm0, %rdx
	movq	%rdx, %rcx
	andq	%rax, %rcx
	shlq	$12, %rdx
	je	.LBB26_23
	cmpq	%rax, %rcx
	jne	.LBB26_23
	movq	_ZN12lexical_core4util6config10NAN_STRING17h51ff9acbf15e5699E(%rip), %r15
	cmpq	%rsi, %r15
	ja	.LBB26_33
	leaq	_ZN12lexical_core4util6config10NAN_STRING17h51ff9acbf15e5699E+8(%rip), %rsi
	jmp	.LBB26_22
.LBB26_12:
	cmpq	%rcx, %rdx
	jne	.LBB26_15
	movq	_ZN12lexical_core4util6config10INF_STRING17h27f46d0080bd297dE(%rip), %r15
	cmpq	%r14, %r15
	ja	.LBB26_32
	leaq	_ZN12lexical_core4util6config10INF_STRING17h27f46d0080bd297dE+8(%rip), %rsi
.LBB26_11:
	movq	%rbx, %rdi
	movq	%r15, %rdx
	callq	*memcpy@GOTPCREL(%rip)
	cmpq	%r14, %r15
	jbe	.LBB26_29
	jmp	.LBB26_32
.LBB26_23:
	cmpq	%rax, %rcx
	jne	.LBB26_26
	movq	_ZN12lexical_core4util6config10INF_STRING17h27f46d0080bd297dE(%rip), %r15
	cmpq	%rsi, %r15
	ja	.LBB26_33
	leaq	_ZN12lexical_core4util6config10INF_STRING17h27f46d0080bd297dE+8(%rip), %rsi
.LBB26_22:
	movq	%r15, %rdx
	callq	*memcpy@GOTPCREL(%rip)
	addq	$1, %r15
	cmpq	%r14, %r15
	jbe	.LBB26_29
	jmp	.LBB26_32
.LBB26_15:
	movq	%rbx, %rdi
	callq	_ZN3ryu6pretty14d2s_buffered_n17ha7b01868af84b78fE
	movq	%rax, %r15
	cmpq	%r14, %r15
	jbe	.LBB26_29
	jmp	.LBB26_32
.LBB26_26:
	callq	_ZN3ryu6pretty14d2s_buffered_n17ha7b01868af84b78fE
	movq	%rax, %r15
	addq	$1, %r15
	cmpq	%r14, %r15
	ja	.LBB26_32
.LBB26_29:
	addq	%r15, %rbx
	movq	%rbx, %rax
	popq	%rbx
	.cfi_def_cfa_offset 24
	popq	%r14
	.cfi_def_cfa_offset 16
	popq	%r15
	.cfi_def_cfa_offset 8
	retq
.LBB26_30:
	.cfi_def_cfa_offset 32
	leaq	.Lanon.a8e4ed8328978708c0e7fc28f693712c.2(%rip), %rdi
	leaq	.Lanon.4edb37075cecff49e9140a01b6f0446c.6(%rip), %rdx
	movl	$70, %esi
	callq	_ZN3std9panicking11begin_panic17hc53bd1a638d5bd8cE
	ud2
.LBB26_32:
	movq	%r15, %rdi
	movq	%r14, %rsi
	callq	_ZN4core5slice20slice_index_len_fail17haa6628c105c1e693E
	ud2
.LBB26_31:
	leaq	.Lanon.d40ce0d908814db1d08d1ec60e7ece38.40(%rip), %rdi
	leaq	.Lanon.d40ce0d908814db1d08d1ec60e7ece38.39(%rip), %rdx
	movl	$45, %esi
	callq	_ZN3std9panicking11begin_panic17hc53bd1a638d5bd8cE
	ud2
.LBB26_33:
	movq	%r15, %rdi
	callq	_ZN4core5slice20slice_index_len_fail17haa6628c105c1e693E
	ud2
.Lfunc_end26:
	.size	f64toa_range, .Lfunc_end26-f64toa_range
	.cfi_endproc

	.section	.text.atou8_range,"ax",@progbits
	.globl	atou8_range
	.p2align	4, 0x90
	.type	atou8_range,@function
atou8_range:
.Lfunc_begin27:
	.cfi_startproc
	subq	$24, %rsp
	.cfi_def_cfa_offset 32
	movq	%rsi, %rdx
	cmpq	%rsi, %rdi
	ja	.LBB27_4
	movq	%rdi, %rsi
	testq	%rdi, %rdi
	je	.LBB27_4
	testq	%rdx, %rdx
	je	.LBB27_4
	subq	%rsi, %rdx
	leaq	8(%rsp), %rdi
	callq	_ZN12lexical_core4atoi10atou8_impl17hdfa71baf59b79908E
	movb	16(%rsp), %al
	addq	$24, %rsp
	.cfi_def_cfa_offset 8
	retq
.LBB27_4:
	.cfi_def_cfa_offset 32
	leaq	.Lanon.a8e4ed8328978708c0e7fc28f693712c.2(%rip), %rdi
	leaq	.Lanon.e24a13fcee629b1660c14200e92551c1.5(%rip), %rdx
	movl	$70, %esi
	callq	_ZN3std9panicking11begin_panic17hc53bd1a638d5bd8cE
	ud2
.Lfunc_end27:
	.size	atou8_range, .Lfunc_end27-atou8_range
	.cfi_endproc

	.section	.text._ZN12lexical_core4atoi10atou8_impl17hdfa71baf59b79908E,"ax",@progbits
	.p2align	4, 0x90
	.type	_ZN12lexical_core4atoi10atou8_impl17hdfa71baf59b79908E,@function
_ZN12lexical_core4atoi10atou8_impl17hdfa71baf59b79908E:
.Lfunc_begin28:
	.cfi_startproc
	pushq	%rbp
	.cfi_def_cfa_offset 16
	pushq	%r15
	.cfi_def_cfa_offset 24
	pushq	%r14
	.cfi_def_cfa_offset 32
	pushq	%r13
	.cfi_def_cfa_offset 40
	pushq	%r12
	.cfi_def_cfa_offset 48
	pushq	%rbx
	.cfi_def_cfa_offset 56
	subq	$4, %rsp
	.cfi_def_cfa_offset 60
	.cfi_offset %rbx, -56
	.cfi_offset %r12, -48
	.cfi_offset %r13, -40
	.cfi_offset %r14, -32
	.cfi_offset %r15, -24
	.cfi_offset %rbp, -16
	testq	%rdx, %rdx
	je	.LBB28_36
	movb	(%rsi), %al
	cmpb	$45, %al
	je	.LBB28_4
	movb	$1, %r8b
	cmpb	$43, %al
	je	.LBB28_5
	xorl	%r9d, %r9d
	jmp	.LBB28_6
.LBB28_4:
	xorl	%r8d, %r8d
.LBB28_5:
	movl	$1, %r9d
	cmpq	$2, %rdx
	jb	.LBB28_14
.LBB28_6:
	leaq	(%rsi,%r9), %r11
	movq	%rdx, %r10
	subq	%r9, %r10
	leaq	(%rsi,%rdx), %rbp
	cmpq	$4, %r10
	jb	.LBB28_15
	leaq	(%rsi,%r9), %rcx
	xorl	%r14d, %r14d
	.p2align	4, 0x90
.LBB28_8:
	cmpb	$48, (%rcx,%r14)
	jne	.LBB28_18
	leaq	(%rcx,%r14), %rbx
	cmpb	$48, 1(%rbx)
	jne	.LBB28_26
	cmpb	$48, 2(%rbx)
	jne	.LBB28_39
	cmpb	$48, 3(%rbx)
	jne	.LBB28_40
	addq	$4, %rbx
	addq	$4, %r14
	movq	%rbp, %rax
	subq	%rbx, %rax
	cmpq	$3, %rax
	ja	.LBB28_8
	addq	%r14, %rcx
	cmpq	%rbp, %rcx
	jne	.LBB28_16
	jmp	.LBB28_18
.LBB28_14:
	xorl	%eax, %eax
	movl	$0, %esi
	movl	$0, %edx
	testb	%r8b, %r8b
	jmp	.LBB28_38
.LBB28_15:
	xorl	%r14d, %r14d
	movq	%r11, %rcx
	cmpq	%rbp, %rcx
	je	.LBB28_18
	.p2align	4, 0x90
.LBB28_16:
	cmpb	$48, (%rcx)
	jne	.LBB28_18
	addq	$1, %rcx
	addq	$1, %r14
	cmpq	%rcx, %rbp
	jne	.LBB28_16
.LBB28_18:
	addq	%r14, %r11
	subq	%r14, %r10
	testb	%r8b, %r8b
	je	.LBB28_27
.LBB28_19:
	cmpq	%rbp, %r11
	je	.LBB28_25
	movl	%r8d, (%rsp)
	leaq	(%r14,%r9), %rax
	addq	%rax, %rsi
	subq	%r14, %rdx
	subq	%r9, %rdx
	xorl	%eax, %eax
	leaq	.Lanon.a8e4ed8328978708c0e7fc28f693712c.3(%rip), %r11
	movb	$10, %r15b
	xorl	%ecx, %ecx
	xorl	%ebp, %ebp
	.p2align	4, 0x90
.LBB28_21:
	movzbl	(%rsi,%rcx), %ebx
	movzbl	(%rbx,%r11), %ebx
	cmpb	$9, %bl
	ja	.LBB28_34
	leaq	(%rsi,%rcx), %r12
	mulb	%r15b
	seto	%r8b
	movq	%r12, %r13
	addb	%bl, %al
	jb	.LBB28_24
	movq	%rbp, %r13
.LBB28_24:
	testb	%r8b, %r8b
	cmovneq	%r12, %r13
	addq	$1, %rcx
	testq	%rbp, %rbp
	cmoveq	%r13, %rbp
	cmpq	%rcx, %rdx
	jne	.LBB28_21
	jmp	.LBB28_33
.LBB28_25:
	xorl	%eax, %eax
	xorl	%esi, %esi
	jmp	.LBB28_38
.LBB28_26:
	addq	$1, %r14
	addq	%r14, %r11
	subq	%r14, %r10
	testb	%r8b, %r8b
	jne	.LBB28_19
.LBB28_27:
	cmpq	%rbp, %r11
	je	.LBB28_36
	movl	%r8d, (%rsp)
	leaq	(%r14,%r9), %rax
	addq	%rax, %rsi
	subq	%r14, %rdx
	subq	%r9, %rdx
	xorl	%eax, %eax
	leaq	.Lanon.a8e4ed8328978708c0e7fc28f693712c.3(%rip), %r11
	movb	$10, %r15b
	xorl	%ecx, %ecx
	xorl	%ebp, %ebp
	.p2align	4, 0x90
.LBB28_29:
	movzbl	(%rsi,%rcx), %ebx
	movzbl	(%rbx,%r11), %ebx
	cmpb	$9, %bl
	ja	.LBB28_34
	leaq	(%rsi,%rcx), %r12
	mulb	%r15b
	seto	%r8b
	movq	%r12, %r13
	subb	%bl, %al
	jb	.LBB28_32
	movq	%rbp, %r13
.LBB28_32:
	testb	%r8b, %r8b
	cmovneq	%r12, %r13
	addq	$1, %rcx
	testq	%rbp, %rbp
	cmoveq	%r13, %rbp
	cmpq	%rcx, %rdx
	jne	.LBB28_29
.LBB28_33:
	movq	%r10, %rcx
.LBB28_34:
	movl	(%rsp), %edx
	testq	%rbp, %rbp
	setne	%sil
	testb	%dl, %dl
	je	.LBB28_37
	addq	%r9, %r14
	addq	%rcx, %r14
	movq	%r14, %rdx
	jmp	.LBB28_38
.LBB28_36:
	xorl	%eax, %eax
	xorl	%esi, %esi
.LBB28_37:
	xorl	%edx, %edx
.LBB28_38:
	movb	%al, 8(%rdi)
	movq	%rdx, (%rdi)
	movb	%sil, 9(%rdi)
	addq	$4, %rsp
	.cfi_def_cfa_offset 56
	popq	%rbx
	.cfi_def_cfa_offset 48
	popq	%r12
	.cfi_def_cfa_offset 40
	popq	%r13
	.cfi_def_cfa_offset 32
	popq	%r14
	.cfi_def_cfa_offset 24
	popq	%r15
	.cfi_def_cfa_offset 16
	popq	%rbp
	.cfi_def_cfa_offset 8
	retq
.LBB28_39:
	.cfi_def_cfa_offset 60
	addq	$2, %r14
	addq	%r14, %r11
	subq	%r14, %r10
	testb	%r8b, %r8b
	jne	.LBB28_19
	jmp	.LBB28_27
.LBB28_40:
	addq	$3, %r14
	addq	%r14, %r11
	subq	%r14, %r10
	testb	%r8b, %r8b
	jne	.LBB28_19
	jmp	.LBB28_27
.Lfunc_end28:
	.size	_ZN12lexical_core4atoi10atou8_impl17hdfa71baf59b79908E, .Lfunc_end28-_ZN12lexical_core4atoi10atou8_impl17hdfa71baf59b79908E
	.cfi_endproc

	.section	.text.atou16_range,"ax",@progbits
	.globl	atou16_range
	.p2align	4, 0x90
	.type	atou16_range,@function
atou16_range:
.Lfunc_begin29:
	.cfi_startproc
	subq	$24, %rsp
	.cfi_def_cfa_offset 32
	movq	%rsi, %rdx
	cmpq	%rsi, %rdi
	ja	.LBB29_4
	movq	%rdi, %rsi
	testq	%rdi, %rdi
	je	.LBB29_4
	testq	%rdx, %rdx
	je	.LBB29_4
	subq	%rsi, %rdx
	leaq	8(%rsp), %rdi
	callq	_ZN12lexical_core4atoi11atou16_impl17hcde02d3985b3ecbaE
	movzwl	16(%rsp), %eax
	addq	$24, %rsp
	.cfi_def_cfa_offset 8
	retq
.LBB29_4:
	.cfi_def_cfa_offset 32
	leaq	.Lanon.a8e4ed8328978708c0e7fc28f693712c.2(%rip), %rdi
	leaq	.Lanon.e24a13fcee629b1660c14200e92551c1.6(%rip), %rdx
	movl	$70, %esi
	callq	_ZN3std9panicking11begin_panic17hc53bd1a638d5bd8cE
	ud2
.Lfunc_end29:
	.size	atou16_range, .Lfunc_end29-atou16_range
	.cfi_endproc

	.section	.text._ZN12lexical_core4atoi11atou16_impl17hcde02d3985b3ecbaE,"ax",@progbits
	.p2align	4, 0x90
	.type	_ZN12lexical_core4atoi11atou16_impl17hcde02d3985b3ecbaE,@function
_ZN12lexical_core4atoi11atou16_impl17hcde02d3985b3ecbaE:
.Lfunc_begin30:
	.cfi_startproc
	pushq	%rbp
	.cfi_def_cfa_offset 16
	pushq	%r15
	.cfi_def_cfa_offset 24
	pushq	%r14
	.cfi_def_cfa_offset 32
	pushq	%r13
	.cfi_def_cfa_offset 40
	pushq	%r12
	.cfi_def_cfa_offset 48
	pushq	%rbx
	.cfi_def_cfa_offset 56
	.cfi_offset %rbx, -56
	.cfi_offset %r12, -48
	.cfi_offset %r13, -40
	.cfi_offset %r14, -32
	.cfi_offset %r15, -24
	.cfi_offset %rbp, -16
	testq	%rdx, %rdx
	je	.LBB30_32
	movq	%rdx, %r10
	movb	(%rsi), %al
	cmpb	$45, %al
	je	.LBB30_4
	movb	$1, %r8b
	cmpb	$43, %al
	je	.LBB30_5
	xorl	%r9d, %r9d
	jmp	.LBB30_6
.LBB30_4:
	xorl	%r8d, %r8d
.LBB30_5:
	movl	$1, %r9d
	cmpq	$2, %r10
	jb	.LBB30_14
.LBB30_6:
	leaq	(%rsi,%r9), %rax
	movq	%r10, %r11
	subq	%r9, %r11
	leaq	(%rsi,%r10), %rbp
	cmpq	$4, %r11
	jb	.LBB30_15
	leaq	(%rsi,%r9), %rcx
	xorl	%r14d, %r14d
	.p2align	4, 0x90
.LBB30_8:
	cmpb	$48, (%rcx,%r14)
	jne	.LBB30_18
	leaq	(%rcx,%r14), %rbx
	cmpb	$48, 1(%rbx)
	jne	.LBB30_24
	cmpb	$48, 2(%rbx)
	jne	.LBB30_35
	cmpb	$48, 3(%rbx)
	jne	.LBB30_36
	addq	$4, %rbx
	addq	$4, %r14
	movq	%rbp, %rdx
	subq	%rbx, %rdx
	cmpq	$3, %rdx
	ja	.LBB30_8
	addq	%r14, %rcx
	cmpq	%rbp, %rcx
	jne	.LBB30_16
	jmp	.LBB30_18
.LBB30_14:
	xorl	%eax, %eax
	movl	$0, %ecx
	movl	$0, %r10d
	testb	%r8b, %r8b
	jmp	.LBB30_34
.LBB30_15:
	xorl	%r14d, %r14d
	movq	%rax, %rcx
	cmpq	%rbp, %rcx
	je	.LBB30_18
	.p2align	4, 0x90
.LBB30_16:
	cmpb	$48, (%rcx)
	jne	.LBB30_18
	addq	$1, %rcx
	addq	$1, %r14
	cmpq	%rcx, %rbp
	jne	.LBB30_16
.LBB30_18:
	addq	%r14, %rax
	subq	%r14, %r11
	testb	%r8b, %r8b
	je	.LBB30_25
.LBB30_19:
	cmpq	%rbp, %rax
	je	.LBB30_23
	leaq	(%r14,%r9), %rax
	addq	%rax, %rsi
	subq	%r14, %r10
	subq	%r9, %r10
	xorl	%eax, %eax
	leaq	.Lanon.a8e4ed8328978708c0e7fc28f693712c.3(%rip), %r15
	movw	$10, %r12w
	xorl	%ebx, %ebx
	xorl	%ecx, %ecx
	.p2align	4, 0x90
.LBB30_21:
	movzbl	(%rsi,%rbx), %edx
	movzbl	(%rdx,%r15), %ebp
	cmpw	$9, %bp
	ja	.LBB30_30
	leaq	(%rsi,%rbx), %r13
	mulw	%r12w
	seto	%dl
	addw	%bp, %ax
	movq	%rcx, %rbp
	cmovbq	%r13, %rbp
	testb	%dl, %dl
	cmovneq	%r13, %rbp
	addq	$1, %rbx
	testq	%rcx, %rcx
	cmoveq	%rbp, %rcx
	cmpq	%rbx, %r10
	jne	.LBB30_21
	jmp	.LBB30_29
.LBB30_23:
	xorl	%eax, %eax
	xorl	%ecx, %ecx
	jmp	.LBB30_34
.LBB30_24:
	addq	$1, %r14
	addq	%r14, %rax
	subq	%r14, %r11
	testb	%r8b, %r8b
	jne	.LBB30_19
.LBB30_25:
	cmpq	%rbp, %rax
	je	.LBB30_32
	leaq	(%r14,%r9), %rax
	addq	%rax, %rsi
	subq	%r14, %r10
	subq	%r9, %r10
	xorl	%eax, %eax
	leaq	.Lanon.a8e4ed8328978708c0e7fc28f693712c.3(%rip), %r15
	movw	$10, %r12w
	xorl	%ebx, %ebx
	xorl	%ecx, %ecx
	.p2align	4, 0x90
.LBB30_27:
	movzbl	(%rsi,%rbx), %edx
	movzbl	(%rdx,%r15), %ebp
	cmpw	$9, %bp
	ja	.LBB30_30
	leaq	(%rsi,%rbx), %r13
	mulw	%r12w
	seto	%dl
	subw	%bp, %ax
	movq	%rcx, %rbp
	cmovbq	%r13, %rbp
	testb	%dl, %dl
	cmovneq	%r13, %rbp
	addq	$1, %rbx
	testq	%rcx, %rcx
	cmoveq	%rbp, %rcx
	cmpq	%rbx, %r10
	jne	.LBB30_27
.LBB30_29:
	movq	%r11, %rbx
.LBB30_30:
	testq	%rcx, %rcx
	setne	%cl
	testb	%r8b, %r8b
	je	.LBB30_33
	addq	%r9, %r14
	addq	%rbx, %r14
	movq	%r14, %r10
	jmp	.LBB30_34
.LBB30_32:
	xorl	%eax, %eax
	xorl	%ecx, %ecx
.LBB30_33:
	xorl	%r10d, %r10d
.LBB30_34:
	movw	%ax, 8(%rdi)
	movq	%r10, (%rdi)
	movb	%cl, 10(%rdi)
	popq	%rbx
	.cfi_def_cfa_offset 48
	popq	%r12
	.cfi_def_cfa_offset 40
	popq	%r13
	.cfi_def_cfa_offset 32
	popq	%r14
	.cfi_def_cfa_offset 24
	popq	%r15
	.cfi_def_cfa_offset 16
	popq	%rbp
	.cfi_def_cfa_offset 8
	retq
.LBB30_35:
	.cfi_def_cfa_offset 56
	addq	$2, %r14
	addq	%r14, %rax
	subq	%r14, %r11
	testb	%r8b, %r8b
	jne	.LBB30_19
	jmp	.LBB30_25
.LBB30_36:
	addq	$3, %r14
	addq	%r14, %rax
	subq	%r14, %r11
	testb	%r8b, %r8b
	jne	.LBB30_19
	jmp	.LBB30_25
.Lfunc_end30:
	.size	_ZN12lexical_core4atoi11atou16_impl17hcde02d3985b3ecbaE, .Lfunc_end30-_ZN12lexical_core4atoi11atou16_impl17hcde02d3985b3ecbaE
	.cfi_endproc

	.section	.text.atou32_range,"ax",@progbits
	.globl	atou32_range
	.p2align	4, 0x90
	.type	atou32_range,@function
atou32_range:
.Lfunc_begin31:
	.cfi_startproc
	subq	$24, %rsp
	.cfi_def_cfa_offset 32
	movq	%rsi, %rdx
	cmpq	%rsi, %rdi
	ja	.LBB31_4
	movq	%rdi, %rsi
	testq	%rdi, %rdi
	je	.LBB31_4
	testq	%rdx, %rdx
	je	.LBB31_4
	subq	%rsi, %rdx
	leaq	8(%rsp), %rdi
	callq	_ZN12lexical_core4atoi11atou32_impl17h152b10bd78770aa6E
	movl	16(%rsp), %eax
	addq	$24, %rsp
	.cfi_def_cfa_offset 8
	retq
.LBB31_4:
	.cfi_def_cfa_offset 32
	leaq	.Lanon.a8e4ed8328978708c0e7fc28f693712c.2(%rip), %rdi
	leaq	.Lanon.e24a13fcee629b1660c14200e92551c1.7(%rip), %rdx
	movl	$70, %esi
	callq	_ZN3std9panicking11begin_panic17hc53bd1a638d5bd8cE
	ud2
.Lfunc_end31:
	.size	atou32_range, .Lfunc_end31-atou32_range
	.cfi_endproc

	.section	.text._ZN12lexical_core4atoi11atou32_impl17h152b10bd78770aa6E,"ax",@progbits
	.p2align	4, 0x90
	.type	_ZN12lexical_core4atoi11atou32_impl17h152b10bd78770aa6E,@function
_ZN12lexical_core4atoi11atou32_impl17h152b10bd78770aa6E:
.Lfunc_begin32:
	.cfi_startproc
	pushq	%rbp
	.cfi_def_cfa_offset 16
	pushq	%r15
	.cfi_def_cfa_offset 24
	pushq	%r14
	.cfi_def_cfa_offset 32
	pushq	%r13
	.cfi_def_cfa_offset 40
	pushq	%r12
	.cfi_def_cfa_offset 48
	pushq	%rbx
	.cfi_def_cfa_offset 56
	.cfi_offset %rbx, -56
	.cfi_offset %r12, -48
	.cfi_offset %r13, -40
	.cfi_offset %r14, -32
	.cfi_offset %r15, -24
	.cfi_offset %rbp, -16
	testq	%rdx, %rdx
	je	.LBB32_32
	movq	%rdx, %r10
	movb	(%rsi), %al
	cmpb	$45, %al
	je	.LBB32_4
	movb	$1, %r8b
	cmpb	$43, %al
	je	.LBB32_5
	xorl	%r9d, %r9d
	jmp	.LBB32_6
.LBB32_4:
	xorl	%r8d, %r8d
.LBB32_5:
	movl	$1, %r9d
	cmpq	$2, %r10
	jb	.LBB32_14
.LBB32_6:
	leaq	(%rsi,%r9), %rax
	movq	%r10, %r11
	subq	%r9, %r11
	leaq	(%rsi,%r10), %rbp
	cmpq	$4, %r11
	jb	.LBB32_15
	leaq	(%rsi,%r9), %rcx
	xorl	%r14d, %r14d
	.p2align	4, 0x90
.LBB32_8:
	cmpb	$48, (%rcx,%r14)
	jne	.LBB32_18
	leaq	(%rcx,%r14), %rbx
	cmpb	$48, 1(%rbx)
	jne	.LBB32_24
	cmpb	$48, 2(%rbx)
	jne	.LBB32_35
	cmpb	$48, 3(%rbx)
	jne	.LBB32_36
	addq	$4, %rbx
	addq	$4, %r14
	movq	%rbp, %rdx
	subq	%rbx, %rdx
	cmpq	$3, %rdx
	ja	.LBB32_8
	addq	%r14, %rcx
	cmpq	%rbp, %rcx
	jne	.LBB32_16
	jmp	.LBB32_18
.LBB32_14:
	xorl	%eax, %eax
	movl	$0, %ecx
	movl	$0, %r10d
	testb	%r8b, %r8b
	jmp	.LBB32_34
.LBB32_15:
	xorl	%r14d, %r14d
	movq	%rax, %rcx
	cmpq	%rbp, %rcx
	je	.LBB32_18
	.p2align	4, 0x90
.LBB32_16:
	cmpb	$48, (%rcx)
	jne	.LBB32_18
	addq	$1, %rcx
	addq	$1, %r14
	cmpq	%rcx, %rbp
	jne	.LBB32_16
.LBB32_18:
	addq	%r14, %rax
	subq	%r14, %r11
	testb	%r8b, %r8b
	je	.LBB32_25
.LBB32_19:
	cmpq	%rbp, %rax
	je	.LBB32_23
	leaq	(%r14,%r9), %rax
	addq	%rax, %rsi
	subq	%r14, %r10
	subq	%r9, %r10
	xorl	%eax, %eax
	leaq	.Lanon.a8e4ed8328978708c0e7fc28f693712c.3(%rip), %r15
	movl	$10, %r12d
	xorl	%ebx, %ebx
	xorl	%ecx, %ecx
	.p2align	4, 0x90
.LBB32_21:
	movzbl	(%rsi,%rbx), %edx
	movzbl	(%rdx,%r15), %ebp
	cmpl	$9, %ebp
	ja	.LBB32_30
	leaq	(%rsi,%rbx), %r13
	mull	%r12d
	seto	%dl
	addl	%ebp, %eax
	movq	%rcx, %rbp
	cmovbq	%r13, %rbp
	testb	%dl, %dl
	cmovneq	%r13, %rbp
	addq	$1, %rbx
	testq	%rcx, %rcx
	cmoveq	%rbp, %rcx
	cmpq	%rbx, %r10
	jne	.LBB32_21
	jmp	.LBB32_29
.LBB32_23:
	xorl	%eax, %eax
	xorl	%ecx, %ecx
	jmp	.LBB32_34
.LBB32_24:
	addq	$1, %r14
	addq	%r14, %rax
	subq	%r14, %r11
	testb	%r8b, %r8b
	jne	.LBB32_19
.LBB32_25:
	cmpq	%rbp, %rax
	je	.LBB32_32
	leaq	(%r14,%r9), %rax
	addq	%rax, %rsi
	subq	%r14, %r10
	subq	%r9, %r10
	xorl	%eax, %eax
	leaq	.Lanon.a8e4ed8328978708c0e7fc28f693712c.3(%rip), %r15
	movl	$10, %r12d
	xorl	%ebx, %ebx
	xorl	%ecx, %ecx
	.p2align	4, 0x90
.LBB32_27:
	movzbl	(%rsi,%rbx), %edx
	movzbl	(%rdx,%r15), %ebp
	cmpl	$9, %ebp
	ja	.LBB32_30
	leaq	(%rsi,%rbx), %r13
	mull	%r12d
	seto	%dl
	subl	%ebp, %eax
	movq	%rcx, %rbp
	cmovbq	%r13, %rbp
	testb	%dl, %dl
	cmovneq	%r13, %rbp
	addq	$1, %rbx
	testq	%rcx, %rcx
	cmoveq	%rbp, %rcx
	cmpq	%rbx, %r10
	jne	.LBB32_27
.LBB32_29:
	movq	%r11, %rbx
.LBB32_30:
	testq	%rcx, %rcx
	setne	%cl
	testb	%r8b, %r8b
	je	.LBB32_33
	addq	%r9, %r14
	addq	%rbx, %r14
	movq	%r14, %r10
	jmp	.LBB32_34
.LBB32_32:
	xorl	%eax, %eax
	xorl	%ecx, %ecx
.LBB32_33:
	xorl	%r10d, %r10d
.LBB32_34:
	movl	%eax, 8(%rdi)
	movq	%r10, (%rdi)
	movb	%cl, 12(%rdi)
	popq	%rbx
	.cfi_def_cfa_offset 48
	popq	%r12
	.cfi_def_cfa_offset 40
	popq	%r13
	.cfi_def_cfa_offset 32
	popq	%r14
	.cfi_def_cfa_offset 24
	popq	%r15
	.cfi_def_cfa_offset 16
	popq	%rbp
	.cfi_def_cfa_offset 8
	retq
.LBB32_35:
	.cfi_def_cfa_offset 56
	addq	$2, %r14
	addq	%r14, %rax
	subq	%r14, %r11
	testb	%r8b, %r8b
	jne	.LBB32_19
	jmp	.LBB32_25
.LBB32_36:
	addq	$3, %r14
	addq	%r14, %rax
	subq	%r14, %r11
	testb	%r8b, %r8b
	jne	.LBB32_19
	jmp	.LBB32_25
.Lfunc_end32:
	.size	_ZN12lexical_core4atoi11atou32_impl17h152b10bd78770aa6E, .Lfunc_end32-_ZN12lexical_core4atoi11atou32_impl17h152b10bd78770aa6E
	.cfi_endproc

	.section	.text.atou64_range,"ax",@progbits
	.globl	atou64_range
	.p2align	4, 0x90
	.type	atou64_range,@function
atou64_range:
.Lfunc_begin33:
	.cfi_startproc
	subq	$24, %rsp
	.cfi_def_cfa_offset 32
	movq	%rsi, %rdx
	cmpq	%rsi, %rdi
	ja	.LBB33_4
	movq	%rdi, %rsi
	testq	%rdi, %rdi
	je	.LBB33_4
	testq	%rdx, %rdx
	je	.LBB33_4
	subq	%rsi, %rdx
	movq	%rsp, %rdi
	callq	_ZN12lexical_core4atoi11atou64_impl17hac5aafc7c200c12aE
	movq	(%rsp), %rax
	addq	$24, %rsp
	.cfi_def_cfa_offset 8
	retq
.LBB33_4:
	.cfi_def_cfa_offset 32
	leaq	.Lanon.a8e4ed8328978708c0e7fc28f693712c.2(%rip), %rdi
	leaq	.Lanon.e24a13fcee629b1660c14200e92551c1.8(%rip), %rdx
	movl	$70, %esi
	callq	_ZN3std9panicking11begin_panic17hc53bd1a638d5bd8cE
	ud2
.Lfunc_end33:
	.size	atou64_range, .Lfunc_end33-atou64_range
	.cfi_endproc

	.section	.text._ZN12lexical_core4atoi11atou64_impl17hac5aafc7c200c12aE,"ax",@progbits
	.p2align	4, 0x90
	.type	_ZN12lexical_core4atoi11atou64_impl17hac5aafc7c200c12aE,@function
_ZN12lexical_core4atoi11atou64_impl17hac5aafc7c200c12aE:
.Lfunc_begin34:
	.cfi_startproc
	pushq	%rbp
	.cfi_def_cfa_offset 16
	pushq	%r15
	.cfi_def_cfa_offset 24
	pushq	%r14
	.cfi_def_cfa_offset 32
	pushq	%r13
	.cfi_def_cfa_offset 40
	pushq	%r12
	.cfi_def_cfa_offset 48
	pushq	%rbx
	.cfi_def_cfa_offset 56
	.cfi_offset %rbx, -56
	.cfi_offset %r12, -48
	.cfi_offset %r13, -40
	.cfi_offset %r14, -32
	.cfi_offset %r15, -24
	.cfi_offset %rbp, -16
	testq	%rdx, %rdx
	je	.LBB34_32
	movq	%rdx, %r10
	movb	(%rsi), %al
	cmpb	$45, %al
	je	.LBB34_4
	movb	$1, %r8b
	cmpb	$43, %al
	je	.LBB34_5
	xorl	%r9d, %r9d
	jmp	.LBB34_6
.LBB34_4:
	xorl	%r8d, %r8d
.LBB34_5:
	movl	$1, %r9d
	cmpq	$2, %r10
	jb	.LBB34_14
.LBB34_6:
	leaq	(%rsi,%r9), %r15
	movq	%r10, %r11
	subq	%r9, %r11
	leaq	(%rsi,%r10), %rax
	cmpq	$4, %r11
	jb	.LBB34_15
	leaq	(%rsi,%r9), %rcx
	xorl	%r14d, %r14d
	.p2align	4, 0x90
.LBB34_8:
	cmpb	$48, (%rcx,%r14)
	jne	.LBB34_18
	leaq	(%rcx,%r14), %rbx
	cmpb	$48, 1(%rbx)
	jne	.LBB34_24
	cmpb	$48, 2(%rbx)
	jne	.LBB34_35
	cmpb	$48, 3(%rbx)
	jne	.LBB34_36
	addq	$4, %rbx
	addq	$4, %r14
	movq	%rax, %rdx
	subq	%rbx, %rdx
	cmpq	$3, %rdx
	ja	.LBB34_8
	addq	%r14, %rcx
	cmpq	%rax, %rcx
	jne	.LBB34_16
	jmp	.LBB34_18
.LBB34_14:
	xorl	%eax, %eax
	movl	$0, %ecx
	movl	$0, %r10d
	testb	%r8b, %r8b
	jmp	.LBB34_34
.LBB34_15:
	xorl	%r14d, %r14d
	movq	%r15, %rcx
	cmpq	%rax, %rcx
	je	.LBB34_18
	.p2align	4, 0x90
.LBB34_16:
	cmpb	$48, (%rcx)
	jne	.LBB34_18
	addq	$1, %rcx
	addq	$1, %r14
	cmpq	%rcx, %rax
	jne	.LBB34_16
.LBB34_18:
	addq	%r14, %r15
	subq	%r14, %r11
	testb	%r8b, %r8b
	je	.LBB34_25
.LBB34_19:
	cmpq	%rax, %r15
	je	.LBB34_23
	leaq	(%r14,%r9), %rax
	addq	%rax, %rsi
	subq	%r14, %r10
	subq	%r9, %r10
	xorl	%eax, %eax
	leaq	.Lanon.a8e4ed8328978708c0e7fc28f693712c.3(%rip), %r15
	movl	$10, %r12d
	xorl	%ebx, %ebx
	xorl	%r13d, %r13d
	.p2align	4, 0x90
.LBB34_21:
	movzbl	(%rsi,%rbx), %ecx
	movzbl	(%rcx,%r15), %ecx
	cmpq	$9, %rcx
	ja	.LBB34_30
	leaq	(%rsi,%rbx), %rbp
	mulq	%r12
	seto	%dl
	addq	%rcx, %rax
	movq	%r13, %rcx
	cmovbq	%rbp, %rcx
	testb	%dl, %dl
	cmovneq	%rbp, %rcx
	addq	$1, %rbx
	testq	%r13, %r13
	cmoveq	%rcx, %r13
	cmpq	%rbx, %r10
	jne	.LBB34_21
	jmp	.LBB34_29
.LBB34_23:
	xorl	%eax, %eax
	xorl	%ecx, %ecx
	jmp	.LBB34_34
.LBB34_24:
	addq	$1, %r14
	addq	%r14, %r15
	subq	%r14, %r11
	testb	%r8b, %r8b
	jne	.LBB34_19
.LBB34_25:
	cmpq	%rax, %r15
	je	.LBB34_32
	leaq	(%r14,%r9), %rax
	addq	%rax, %rsi
	subq	%r14, %r10
	subq	%r9, %r10
	xorl	%eax, %eax
	leaq	.Lanon.a8e4ed8328978708c0e7fc28f693712c.3(%rip), %r15
	movl	$10, %r12d
	xorl	%ebx, %ebx
	xorl	%r13d, %r13d
	.p2align	4, 0x90
.LBB34_27:
	movzbl	(%rsi,%rbx), %ecx
	movzbl	(%rcx,%r15), %ecx
	cmpq	$9, %rcx
	ja	.LBB34_30
	leaq	(%rsi,%rbx), %rbp
	mulq	%r12
	seto	%dl
	subq	%rcx, %rax
	movq	%r13, %rcx
	cmovbq	%rbp, %rcx
	testb	%dl, %dl
	cmovneq	%rbp, %rcx
	addq	$1, %rbx
	testq	%r13, %r13
	cmoveq	%rcx, %r13
	cmpq	%rbx, %r10
	jne	.LBB34_27
.LBB34_29:
	movq	%r11, %rbx
.LBB34_30:
	testq	%r13, %r13
	setne	%cl
	testb	%r8b, %r8b
	je	.LBB34_33
	addq	%r9, %r14
	addq	%rbx, %r14
	movq	%r14, %r10
	jmp	.LBB34_34
.LBB34_32:
	xorl	%eax, %eax
	xorl	%ecx, %ecx
.LBB34_33:
	xorl	%r10d, %r10d
.LBB34_34:
	movq	%rax, (%rdi)
	movq	%r10, 8(%rdi)
	movb	%cl, 16(%rdi)
	popq	%rbx
	.cfi_def_cfa_offset 48
	popq	%r12
	.cfi_def_cfa_offset 40
	popq	%r13
	.cfi_def_cfa_offset 32
	popq	%r14
	.cfi_def_cfa_offset 24
	popq	%r15
	.cfi_def_cfa_offset 16
	popq	%rbp
	.cfi_def_cfa_offset 8
	retq
.LBB34_35:
	.cfi_def_cfa_offset 56
	addq	$2, %r14
	addq	%r14, %r15
	subq	%r14, %r11
	testb	%r8b, %r8b
	jne	.LBB34_19
	jmp	.LBB34_25
.LBB34_36:
	addq	$3, %r14
	addq	%r14, %r15
	subq	%r14, %r11
	testb	%r8b, %r8b
	jne	.LBB34_19
	jmp	.LBB34_25
.Lfunc_end34:
	.size	_ZN12lexical_core4atoi11atou64_impl17hac5aafc7c200c12aE, .Lfunc_end34-_ZN12lexical_core4atoi11atou64_impl17hac5aafc7c200c12aE
	.cfi_endproc

	.section	.text.atou128_range,"ax",@progbits
	.globl	atou128_range
	.p2align	4, 0x90
	.type	atou128_range,@function
atou128_range:
.Lfunc_begin35:
	.cfi_startproc
	subq	$40, %rsp
	.cfi_def_cfa_offset 48
	movq	%rsi, %rdx
	cmpq	%rsi, %rdi
	ja	.LBB35_4
	movq	%rdi, %rsi
	testq	%rdi, %rdi
	je	.LBB35_4
	testq	%rdx, %rdx
	je	.LBB35_4
	subq	%rsi, %rdx
	leaq	8(%rsp), %rdi
	callq	_ZN12lexical_core4atoi12atou128_impl17hbe02181ca6ac1fbcE
	movq	8(%rsp), %rax
	movq	16(%rsp), %rdx
	addq	$40, %rsp
	.cfi_def_cfa_offset 8
	retq
.LBB35_4:
	.cfi_def_cfa_offset 48
	leaq	.Lanon.a8e4ed8328978708c0e7fc28f693712c.2(%rip), %rdi
	leaq	.Lanon.e24a13fcee629b1660c14200e92551c1.9(%rip), %rdx
	movl	$70, %esi
	callq	_ZN3std9panicking11begin_panic17hc53bd1a638d5bd8cE
	ud2
.Lfunc_end35:
	.size	atou128_range, .Lfunc_end35-atou128_range
	.cfi_endproc

	.section	.text._ZN12lexical_core4atoi12atou128_impl17hbe02181ca6ac1fbcE,"ax",@progbits
	.p2align	4, 0x90
	.type	_ZN12lexical_core4atoi12atou128_impl17hbe02181ca6ac1fbcE,@function
_ZN12lexical_core4atoi12atou128_impl17hbe02181ca6ac1fbcE:
.Lfunc_begin36:
	.cfi_startproc
	pushq	%rbp
	.cfi_def_cfa_offset 16
	pushq	%r15
	.cfi_def_cfa_offset 24
	pushq	%r14
	.cfi_def_cfa_offset 32
	pushq	%r13
	.cfi_def_cfa_offset 40
	pushq	%r12
	.cfi_def_cfa_offset 48
	pushq	%rbx
	.cfi_def_cfa_offset 56
	subq	$32, %rsp
	.cfi_def_cfa_offset 88
	.cfi_offset %rbx, -56
	.cfi_offset %r12, -48
	.cfi_offset %r13, -40
	.cfi_offset %r14, -32
	.cfi_offset %r15, -24
	.cfi_offset %rbp, -16
	testq	%rdx, %rdx
	je	.LBB36_4
	movq	%rdx, %r8
	movb	(%rsi), %al
	cmpb	$45, %al
	je	.LBB36_5
	movb	$1, %r9b
	cmpb	$43, %al
	je	.LBB36_6
	movq	%rdi, (%rsp)
	xorl	%ecx, %ecx
	jmp	.LBB36_8
.LBB36_4:
	xorl	%r9d, %r9d
	xorl	%ecx, %ecx
	xorl	%eax, %eax
	xorl	%r8d, %r8d
	jmp	.LBB36_37
.LBB36_5:
	xorl	%r9d, %r9d
.LBB36_6:
	movl	$1, %ecx
	cmpq	$2, %r8
	jb	.LBB36_16
	movq	%rdi, (%rsp)
.LBB36_8:
	leaq	(%rsi,%rcx), %rax
	movq	%r8, %rdx
	subq	%rcx, %rdx
	leaq	(%rsi,%r8), %rbx
	cmpq	$4, %rdx
	movq	%rcx, 16(%rsp)
	movq	%rdx, 24(%rsp)
	jb	.LBB36_17
	leaq	(%rsi,%rcx), %rdx
	xorl	%r13d, %r13d
	.p2align	4, 0x90
.LBB36_10:
	cmpb	$48, (%rdx,%r13)
	jne	.LBB36_20
	leaq	(%rdx,%r13), %rbp
	cmpb	$48, 1(%rbp)
	jne	.LBB36_26
	cmpb	$48, 2(%rbp)
	jne	.LBB36_38
	cmpb	$48, 3(%rbp)
	jne	.LBB36_39
	addq	$4, %rbp
	addq	$4, %r13
	movq	%rbx, %rcx
	subq	%rbp, %rcx
	cmpq	$3, %rcx
	ja	.LBB36_10
	addq	%r13, %rdx
	cmpq	%rbx, %rdx
	jne	.LBB36_18
	jmp	.LBB36_20
.LBB36_16:
	movl	%r9d, %edx
	xorl	%r9d, %r9d
	movl	$0, %ecx
	movl	$0, %eax
	movl	$0, %r8d
	testb	%dl, %dl
	jmp	.LBB36_37
.LBB36_17:
	xorl	%r13d, %r13d
	movq	%rax, %rdx
	cmpq	%rbx, %rdx
	je	.LBB36_20
	.p2align	4, 0x90
.LBB36_18:
	cmpb	$48, (%rdx)
	jne	.LBB36_20
	addq	$1, %rdx
	addq	$1, %r13
	cmpq	%rdx, %rbx
	jne	.LBB36_18
.LBB36_20:
	addq	%r13, %rax
	subq	%r13, 24(%rsp)
	testb	%r9b, %r9b
	je	.LBB36_27
.LBB36_21:
	cmpq	%rbx, %rax
	je	.LBB36_25
	movl	%r9d, 12(%rsp)
	movq	16(%rsp), %rcx
	leaq	(%rcx,%r13), %rax
	addq	%rax, %rsi
	subq	%r13, %r8
	subq	%rcx, %r8
	xorl	%r9d, %r9d
	xorl	%ecx, %ecx
	xorl	%ebx, %ebx
	xorl	%ebp, %ebp
	.p2align	4, 0x90
.LBB36_23:
	movzbl	(%rsi,%rbx), %eax
	leaq	.Lanon.a8e4ed8328978708c0e7fc28f693712c.3(%rip), %rdx
	movzbl	(%rax,%rdx), %eax
	cmpb	$9, %al
	ja	.LBB36_32
	leaq	(%rsi,%rbx), %r12
	movzbl	%al, %r14d
	addq	$1, %rbx
	xorl	%eax, %eax
	mulq	%r9
	movq	%rax, %r10
	seto	%dil
	movq	%rcx, %rax
	movl	$10, %ecx
	mulq	%rcx
	movq	%rax, %r11
	seto	%r15b
	orb	%dil, %r15b
	addq	%r10, %r11
	movq	%r9, %rax
	mulq	%rcx
	movq	%rdx, %rcx
	addq	%r11, %rcx
	setb	%dl
	orb	%r15b, %dl
	movq	%rax, %r9
	addq	%r14, %r9
	adcq	$0, %rcx
	movq	%rbp, %rax
	cmovbq	%r12, %rax
	testb	%dl, %dl
	cmovneq	%r12, %rax
	testq	%rbp, %rbp
	cmoveq	%rax, %rbp
	cmpq	%rbx, %r8
	jne	.LBB36_23
	jmp	.LBB36_31
.LBB36_25:
	xorl	%r9d, %r9d
	xorl	%ecx, %ecx
	xorl	%eax, %eax
	jmp	.LBB36_36
.LBB36_26:
	addq	$1, %r13
	addq	%r13, %rax
	subq	%r13, 24(%rsp)
	testb	%r9b, %r9b
	jne	.LBB36_21
.LBB36_27:
	cmpq	%rbx, %rax
	je	.LBB36_34
	movl	%r9d, 12(%rsp)
	movq	16(%rsp), %rcx
	leaq	(%rcx,%r13), %rax
	addq	%rax, %rsi
	subq	%r13, %r8
	subq	%rcx, %r8
	xorl	%r9d, %r9d
	xorl	%ecx, %ecx
	xorl	%ebx, %ebx
	xorl	%ebp, %ebp
	.p2align	4, 0x90
.LBB36_29:
	movzbl	(%rsi,%rbx), %eax
	leaq	.Lanon.a8e4ed8328978708c0e7fc28f693712c.3(%rip), %rdx
	movzbl	(%rax,%rdx), %eax
	cmpb	$9, %al
	ja	.LBB36_32
	leaq	(%rsi,%rbx), %r12
	movzbl	%al, %edi
	addq	$1, %rbx
	xorl	%eax, %eax
	mulq	%r9
	movq	%rax, %r10
	seto	%r14b
	movq	%rcx, %rax
	movl	$10, %ecx
	mulq	%rcx
	movq	%rax, %r11
	seto	%r15b
	orb	%r14b, %r15b
	addq	%r10, %r11
	movq	%r9, %rax
	mulq	%rcx
	movq	%rdx, %rcx
	addq	%r11, %rcx
	setb	%dl
	orb	%r15b, %dl
	movq	%rax, %r9
	subq	%rdi, %r9
	sbbq	$0, %rcx
	movq	%rbp, %rax
	cmovbq	%r12, %rax
	testb	%dl, %dl
	cmovneq	%r12, %rax
	testq	%rbp, %rbp
	cmoveq	%rax, %rbp
	cmpq	%rbx, %r8
	jne	.LBB36_29
.LBB36_31:
	movq	24(%rsp), %rbx
.LBB36_32:
	testq	%rbp, %rbp
	setne	%al
	cmpb	$0, 12(%rsp)
	je	.LBB36_35
	addq	16(%rsp), %r13
	addq	%rbx, %r13
	movq	%r13, %r8
	jmp	.LBB36_36
.LBB36_34:
	xorl	%r9d, %r9d
	xorl	%ecx, %ecx
	xorl	%eax, %eax
.LBB36_35:
	xorl	%r8d, %r8d
.LBB36_36:
	movq	(%rsp), %rdi
.LBB36_37:
	movq	%r9, (%rdi)
	movq	%rcx, 8(%rdi)
	movq	%r8, 16(%rdi)
	movb	%al, 24(%rdi)
	addq	$32, %rsp
	.cfi_def_cfa_offset 56
	popq	%rbx
	.cfi_def_cfa_offset 48
	popq	%r12
	.cfi_def_cfa_offset 40
	popq	%r13
	.cfi_def_cfa_offset 32
	popq	%r14
	.cfi_def_cfa_offset 24
	popq	%r15
	.cfi_def_cfa_offset 16
	popq	%rbp
	.cfi_def_cfa_offset 8
	retq
.LBB36_38:
	.cfi_def_cfa_offset 88
	addq	$2, %r13
	addq	%r13, %rax
	subq	%r13, 24(%rsp)
	testb	%r9b, %r9b
	jne	.LBB36_21
	jmp	.LBB36_27
.LBB36_39:
	addq	$3, %r13
	addq	%r13, %rax
	subq	%r13, 24(%rsp)
	testb	%r9b, %r9b
	jne	.LBB36_21
	jmp	.LBB36_27
.Lfunc_end36:
	.size	_ZN12lexical_core4atoi12atou128_impl17hbe02181ca6ac1fbcE, .Lfunc_end36-_ZN12lexical_core4atoi12atou128_impl17hbe02181ca6ac1fbcE
	.cfi_endproc

	.section	.text.atousize_range,"ax",@progbits
	.globl	atousize_range
	.p2align	4, 0x90
	.type	atousize_range,@function
atousize_range:
.Lfunc_begin37:
	.cfi_startproc
	subq	$24, %rsp
	.cfi_def_cfa_offset 32
	movq	%rsi, %rdx
	cmpq	%rsi, %rdi
	ja	.LBB37_4
	movq	%rdi, %rsi
	testq	%rdi, %rdi
	je	.LBB37_4
	testq	%rdx, %rdx
	je	.LBB37_4
	subq	%rsi, %rdx
	movq	%rsp, %rdi
	callq	_ZN12lexical_core4atoi11atou64_impl17hac5aafc7c200c12aE
	movq	(%rsp), %rax
	addq	$24, %rsp
	.cfi_def_cfa_offset 8
	retq
.LBB37_4:
	.cfi_def_cfa_offset 32
	leaq	.Lanon.a8e4ed8328978708c0e7fc28f693712c.2(%rip), %rdi
	leaq	.Lanon.e24a13fcee629b1660c14200e92551c1.10(%rip), %rdx
	movl	$70, %esi
	callq	_ZN3std9panicking11begin_panic17hc53bd1a638d5bd8cE
	ud2
.Lfunc_end37:
	.size	atousize_range, .Lfunc_end37-atousize_range
	.cfi_endproc

	.section	.text.atoi8_range,"ax",@progbits
	.globl	atoi8_range
	.p2align	4, 0x90
	.type	atoi8_range,@function
atoi8_range:
.Lfunc_begin38:
	.cfi_startproc
	subq	$24, %rsp
	.cfi_def_cfa_offset 32
	movq	%rsi, %rdx
	cmpq	%rsi, %rdi
	ja	.LBB38_4
	movq	%rdi, %rsi
	testq	%rdi, %rdi
	je	.LBB38_4
	testq	%rdx, %rdx
	je	.LBB38_4
	subq	%rsi, %rdx
	leaq	8(%rsp), %rdi
	callq	_ZN12lexical_core4atoi10atoi8_impl17h1d78aeb19f08c722E
	movb	16(%rsp), %al
	addq	$24, %rsp
	.cfi_def_cfa_offset 8
	retq
.LBB38_4:
	.cfi_def_cfa_offset 32
	leaq	.Lanon.a8e4ed8328978708c0e7fc28f693712c.2(%rip), %rdi
	leaq	.Lanon.e24a13fcee629b1660c14200e92551c1.11(%rip), %rdx
	movl	$70, %esi
	callq	_ZN3std9panicking11begin_panic17hc53bd1a638d5bd8cE
	ud2
.Lfunc_end38:
	.size	atoi8_range, .Lfunc_end38-atoi8_range
	.cfi_endproc

	.section	.text._ZN12lexical_core4atoi10atoi8_impl17h1d78aeb19f08c722E,"ax",@progbits
	.p2align	4, 0x90
	.type	_ZN12lexical_core4atoi10atoi8_impl17h1d78aeb19f08c722E,@function
_ZN12lexical_core4atoi10atoi8_impl17h1d78aeb19f08c722E:
.Lfunc_begin39:
	.cfi_startproc
	pushq	%rbp
	.cfi_def_cfa_offset 16
	pushq	%r15
	.cfi_def_cfa_offset 24
	pushq	%r14
	.cfi_def_cfa_offset 32
	pushq	%r12
	.cfi_def_cfa_offset 40
	pushq	%rbx
	.cfi_def_cfa_offset 48
	.cfi_offset %rbx, -48
	.cfi_offset %r12, -40
	.cfi_offset %r14, -32
	.cfi_offset %r15, -24
	.cfi_offset %rbp, -16
	testq	%rdx, %rdx
	je	.LBB39_14
	movb	(%rsi), %al
	cmpb	$45, %al
	je	.LBB39_4
	movb	$1, %r10b
	cmpb	$43, %al
	je	.LBB39_5
	xorl	%r8d, %r8d
	jmp	.LBB39_6
.LBB39_4:
	xorl	%r10d, %r10d
.LBB39_5:
	movl	$1, %r8d
	cmpq	$2, %rdx
	jb	.LBB39_14
.LBB39_6:
	leaq	(%rsi,%r8), %r11
	movq	%rdx, %r9
	subq	%r8, %r9
	leaq	(%rsi,%rdx), %rbp
	cmpq	$4, %r9
	jb	.LBB39_15
	leaq	(%rsi,%r8), %rcx
	xorl	%r14d, %r14d
	.p2align	4, 0x90
.LBB39_8:
	cmpb	$48, (%rcx,%r14)
	jne	.LBB39_18
	leaq	(%rcx,%r14), %rbx
	cmpb	$48, 1(%rbx)
	jne	.LBB39_26
	cmpb	$48, 2(%rbx)
	jne	.LBB39_37
	cmpb	$48, 3(%rbx)
	jne	.LBB39_38
	addq	$4, %rbx
	addq	$4, %r14
	movq	%rbp, %rax
	subq	%rbx, %rax
	cmpq	$3, %rax
	ja	.LBB39_8
	addq	%r14, %rcx
	cmpq	%rbp, %rcx
	jne	.LBB39_16
	jmp	.LBB39_18
.LBB39_14:
	xorl	%eax, %eax
	xorl	%r14d, %r14d
	xorl	%ecx, %ecx
	jmp	.LBB39_36
.LBB39_15:
	xorl	%r14d, %r14d
	movq	%r11, %rcx
	cmpq	%rbp, %rcx
	je	.LBB39_18
	.p2align	4, 0x90
.LBB39_16:
	cmpb	$48, (%rcx)
	jne	.LBB39_18
	addq	$1, %rcx
	addq	$1, %r14
	cmpq	%rcx, %rbp
	jne	.LBB39_16
.LBB39_18:
	addq	%r14, %r11
	subq	%r14, %r9
	testb	%r10b, %r10b
	je	.LBB39_27
.LBB39_19:
	cmpq	%rbp, %r11
	je	.LBB39_33
	leaq	(%r14,%r8), %rax
	addq	%rax, %rsi
	subq	%r14, %rdx
	subq	%r8, %rdx
	xorl	%eax, %eax
	leaq	.Lanon.a8e4ed8328978708c0e7fc28f693712c.3(%rip), %r10
	movb	$10, %r11b
	xorl	%ebx, %ebx
	xorl	%r12d, %r12d
	.p2align	4, 0x90
.LBB39_21:
	movzbl	(%rsi,%rbx), %ecx
	movzbl	(%rcx,%r10), %ecx
	cmpb	$9, %cl
	jg	.LBB39_34
	leaq	(%rsi,%rbx), %r15
	imulb	%r11b
	seto	%bpl
	addb	%cl, %al
	movq	%r15, %rcx
	jo	.LBB39_24
	movq	%r12, %rcx
.LBB39_24:
	testb	%bpl, %bpl
	cmovneq	%r15, %rcx
	addq	$1, %rbx
	testq	%r12, %r12
	cmoveq	%rcx, %r12
	cmpq	%rbx, %rdx
	jne	.LBB39_21
	jmp	.LBB39_35
.LBB39_26:
	addq	$1, %r14
	addq	%r14, %r11
	subq	%r14, %r9
	testb	%r10b, %r10b
	jne	.LBB39_19
.LBB39_27:
	cmpq	%rbp, %r11
	je	.LBB39_33
	leaq	(%r14,%r8), %rax
	addq	%rax, %rsi
	subq	%r14, %rdx
	subq	%r8, %rdx
	xorl	%eax, %eax
	leaq	.Lanon.a8e4ed8328978708c0e7fc28f693712c.3(%rip), %r10
	movb	$10, %r11b
	xorl	%ebx, %ebx
	xorl	%r12d, %r12d
	.p2align	4, 0x90
.LBB39_29:
	movzbl	(%rsi,%rbx), %ecx
	movzbl	(%rcx,%r10), %ecx
	cmpb	$9, %cl
	jg	.LBB39_34
	leaq	(%rsi,%rbx), %r15
	imulb	%r11b
	seto	%bpl
	subb	%cl, %al
	movq	%r15, %rcx
	jo	.LBB39_32
	movq	%r12, %rcx
.LBB39_32:
	testb	%bpl, %bpl
	cmovneq	%r15, %rcx
	addq	$1, %rbx
	testq	%r12, %r12
	cmoveq	%rcx, %r12
	cmpq	%rbx, %rdx
	jne	.LBB39_29
	jmp	.LBB39_35
.LBB39_33:
	xorl	%eax, %eax
	xorl	%r12d, %r12d
	jmp	.LBB39_35
.LBB39_34:
	movq	%rbx, %r9
.LBB39_35:
	addq	%r8, %r14
	addq	%r9, %r14
	testq	%r12, %r12
	setne	%cl
.LBB39_36:
	movb	%al, 8(%rdi)
	movq	%r14, (%rdi)
	movb	%cl, 9(%rdi)
	popq	%rbx
	.cfi_def_cfa_offset 40
	popq	%r12
	.cfi_def_cfa_offset 32
	popq	%r14
	.cfi_def_cfa_offset 24
	popq	%r15
	.cfi_def_cfa_offset 16
	popq	%rbp
	.cfi_def_cfa_offset 8
	retq
.LBB39_37:
	.cfi_def_cfa_offset 48
	addq	$2, %r14
	addq	%r14, %r11
	subq	%r14, %r9
	testb	%r10b, %r10b
	jne	.LBB39_19
	jmp	.LBB39_27
.LBB39_38:
	addq	$3, %r14
	addq	%r14, %r11
	subq	%r14, %r9
	testb	%r10b, %r10b
	jne	.LBB39_19
	jmp	.LBB39_27
.Lfunc_end39:
	.size	_ZN12lexical_core4atoi10atoi8_impl17h1d78aeb19f08c722E, .Lfunc_end39-_ZN12lexical_core4atoi10atoi8_impl17h1d78aeb19f08c722E
	.cfi_endproc

	.section	.text.atoi16_range,"ax",@progbits
	.globl	atoi16_range
	.p2align	4, 0x90
	.type	atoi16_range,@function
atoi16_range:
.Lfunc_begin40:
	.cfi_startproc
	subq	$24, %rsp
	.cfi_def_cfa_offset 32
	movq	%rsi, %rdx
	cmpq	%rsi, %rdi
	ja	.LBB40_4
	movq	%rdi, %rsi
	testq	%rdi, %rdi
	je	.LBB40_4
	testq	%rdx, %rdx
	je	.LBB40_4
	subq	%rsi, %rdx
	leaq	8(%rsp), %rdi
	callq	_ZN12lexical_core4atoi11atoi16_impl17hc722edf89e60afe1E
	movzwl	16(%rsp), %eax
	addq	$24, %rsp
	.cfi_def_cfa_offset 8
	retq
.LBB40_4:
	.cfi_def_cfa_offset 32
	leaq	.Lanon.a8e4ed8328978708c0e7fc28f693712c.2(%rip), %rdi
	leaq	.Lanon.e24a13fcee629b1660c14200e92551c1.12(%rip), %rdx
	movl	$70, %esi
	callq	_ZN3std9panicking11begin_panic17hc53bd1a638d5bd8cE
	ud2
.Lfunc_end40:
	.size	atoi16_range, .Lfunc_end40-atoi16_range
	.cfi_endproc

	.section	.text._ZN12lexical_core4atoi11atoi16_impl17hc722edf89e60afe1E,"ax",@progbits
	.p2align	4, 0x90
	.type	_ZN12lexical_core4atoi11atoi16_impl17hc722edf89e60afe1E,@function
_ZN12lexical_core4atoi11atoi16_impl17hc722edf89e60afe1E:
.Lfunc_begin41:
	.cfi_startproc
	pushq	%rbp
	.cfi_def_cfa_offset 16
	pushq	%r15
	.cfi_def_cfa_offset 24
	pushq	%r14
	.cfi_def_cfa_offset 32
	pushq	%r12
	.cfi_def_cfa_offset 40
	pushq	%rbx
	.cfi_def_cfa_offset 48
	.cfi_offset %rbx, -48
	.cfi_offset %r12, -40
	.cfi_offset %r14, -32
	.cfi_offset %r15, -24
	.cfi_offset %rbp, -16
	testq	%rdx, %rdx
	je	.LBB41_14
	movb	(%rsi), %al
	cmpb	$45, %al
	je	.LBB41_4
	movb	$1, %r9b
	cmpb	$43, %al
	je	.LBB41_5
	xorl	%r8d, %r8d
	jmp	.LBB41_6
.LBB41_4:
	xorl	%r9d, %r9d
.LBB41_5:
	movl	$1, %r8d
	cmpq	$2, %rdx
	jb	.LBB41_14
.LBB41_6:
	leaq	(%rsi,%r8), %r11
	movq	%rdx, %r10
	subq	%r8, %r10
	leaq	(%rsi,%rdx), %rbp
	cmpq	$4, %r10
	jb	.LBB41_15
	leaq	(%rsi,%r8), %rcx
	xorl	%r14d, %r14d
	.p2align	4, 0x90
.LBB41_8:
	cmpb	$48, (%rcx,%r14)
	jne	.LBB41_18
	leaq	(%rcx,%r14), %rbx
	cmpb	$48, 1(%rbx)
	jne	.LBB41_24
	cmpb	$48, 2(%rbx)
	jne	.LBB41_34
	cmpb	$48, 3(%rbx)
	jne	.LBB41_35
	addq	$4, %rbx
	addq	$4, %r14
	movq	%rbp, %rax
	subq	%rbx, %rax
	cmpq	$3, %rax
	ja	.LBB41_8
	addq	%r14, %rcx
	cmpq	%rbp, %rcx
	jne	.LBB41_16
	jmp	.LBB41_18
.LBB41_14:
	xorl	%r11d, %r11d
	xorl	%r14d, %r14d
	xorl	%eax, %eax
	jmp	.LBB41_33
.LBB41_15:
	xorl	%r14d, %r14d
	movq	%r11, %rcx
	cmpq	%rbp, %rcx
	je	.LBB41_18
	.p2align	4, 0x90
.LBB41_16:
	cmpb	$48, (%rcx)
	jne	.LBB41_18
	addq	$1, %rcx
	addq	$1, %r14
	cmpq	%rcx, %rbp
	jne	.LBB41_16
.LBB41_18:
	addq	%r14, %r11
	subq	%r14, %r10
	testb	%r9b, %r9b
	je	.LBB41_25
.LBB41_19:
	cmpq	%rbp, %r11
	je	.LBB41_30
	leaq	(%r14,%r8), %rax
	addq	%rax, %rsi
	subq	%r14, %rdx
	subq	%r8, %rdx
	xorl	%r11d, %r11d
	leaq	.Lanon.a8e4ed8328978708c0e7fc28f693712c.3(%rip), %r9
	xorl	%ebx, %ebx
	xorl	%r12d, %r12d
	.p2align	4, 0x90
.LBB41_21:
	movzbl	(%rsi,%rbx), %eax
	movzbl	(%rax,%r9), %ebp
	cmpw	$9, %bp
	ja	.LBB41_31
	leaq	(%rsi,%rbx), %r15
	imulw	$10, %r11w, %ax
	addw	%bp, %ax
	movq	%r12, %rcx
	cmovoq	%r15, %rcx
	imulw	$10, %r11w, %bp
	cmovoq	%r15, %rcx
	addq	$1, %rbx
	testq	%r12, %r12
	cmoveq	%rcx, %r12
	movl	%eax, %r11d
	cmpq	%rbx, %rdx
	jne	.LBB41_21
	jmp	.LBB41_29
.LBB41_24:
	addq	$1, %r14
	addq	%r14, %r11
	subq	%r14, %r10
	testb	%r9b, %r9b
	jne	.LBB41_19
.LBB41_25:
	cmpq	%rbp, %r11
	je	.LBB41_30
	leaq	(%r14,%r8), %rax
	addq	%rax, %rsi
	subq	%r14, %rdx
	subq	%r8, %rdx
	xorl	%r11d, %r11d
	leaq	.Lanon.a8e4ed8328978708c0e7fc28f693712c.3(%rip), %r9
	xorl	%ebx, %ebx
	xorl	%r12d, %r12d
	.p2align	4, 0x90
.LBB41_27:
	movzbl	(%rsi,%rbx), %eax
	movzbl	(%rax,%r9), %ebp
	cmpw	$9, %bp
	ja	.LBB41_31
	leaq	(%rsi,%rbx), %r15
	imulw	$10, %r11w, %ax
	subw	%bp, %ax
	movq	%r12, %rbp
	cmovoq	%r15, %rbp
	imulw	$10, %r11w, %cx
	cmovoq	%r15, %rbp
	addq	$1, %rbx
	testq	%r12, %r12
	cmoveq	%rbp, %r12
	movl	%eax, %r11d
	cmpq	%rbx, %rdx
	jne	.LBB41_27
.LBB41_29:
	movl	%eax, %r11d
	jmp	.LBB41_32
.LBB41_30:
	xorl	%r11d, %r11d
	xorl	%r12d, %r12d
	jmp	.LBB41_32
.LBB41_31:
	movq	%rbx, %r10
.LBB41_32:
	addq	%r8, %r14
	addq	%r10, %r14
	testq	%r12, %r12
	setne	%al
.LBB41_33:
	movw	%r11w, 8(%rdi)
	movq	%r14, (%rdi)
	movb	%al, 10(%rdi)
	popq	%rbx
	.cfi_def_cfa_offset 40
	popq	%r12
	.cfi_def_cfa_offset 32
	popq	%r14
	.cfi_def_cfa_offset 24
	popq	%r15
	.cfi_def_cfa_offset 16
	popq	%rbp
	.cfi_def_cfa_offset 8
	retq
.LBB41_34:
	.cfi_def_cfa_offset 48
	addq	$2, %r14
	addq	%r14, %r11
	subq	%r14, %r10
	testb	%r9b, %r9b
	jne	.LBB41_19
	jmp	.LBB41_25
.LBB41_35:
	addq	$3, %r14
	addq	%r14, %r11
	subq	%r14, %r10
	testb	%r9b, %r9b
	jne	.LBB41_19
	jmp	.LBB41_25
.Lfunc_end41:
	.size	_ZN12lexical_core4atoi11atoi16_impl17hc722edf89e60afe1E, .Lfunc_end41-_ZN12lexical_core4atoi11atoi16_impl17hc722edf89e60afe1E
	.cfi_endproc

	.section	.text.atoi32_range,"ax",@progbits
	.globl	atoi32_range
	.p2align	4, 0x90
	.type	atoi32_range,@function
atoi32_range:
.Lfunc_begin42:
	.cfi_startproc
	subq	$24, %rsp
	.cfi_def_cfa_offset 32
	movq	%rsi, %rdx
	cmpq	%rsi, %rdi
	ja	.LBB42_4
	movq	%rdi, %rsi
	testq	%rdi, %rdi
	je	.LBB42_4
	testq	%rdx, %rdx
	je	.LBB42_4
	subq	%rsi, %rdx
	leaq	8(%rsp), %rdi
	callq	_ZN12lexical_core4atoi11atoi32_impl17hae592444e6e976caE
	movl	16(%rsp), %eax
	addq	$24, %rsp
	.cfi_def_cfa_offset 8
	retq
.LBB42_4:
	.cfi_def_cfa_offset 32
	leaq	.Lanon.a8e4ed8328978708c0e7fc28f693712c.2(%rip), %rdi
	leaq	.Lanon.e24a13fcee629b1660c14200e92551c1.13(%rip), %rdx
	movl	$70, %esi
	callq	_ZN3std9panicking11begin_panic17hc53bd1a638d5bd8cE
	ud2
.Lfunc_end42:
	.size	atoi32_range, .Lfunc_end42-atoi32_range
	.cfi_endproc

	.section	.text._ZN12lexical_core4atoi11atoi32_impl17hae592444e6e976caE,"ax",@progbits
	.p2align	4, 0x90
	.type	_ZN12lexical_core4atoi11atoi32_impl17hae592444e6e976caE,@function
_ZN12lexical_core4atoi11atoi32_impl17hae592444e6e976caE:
.Lfunc_begin43:
	.cfi_startproc
	pushq	%rbp
	.cfi_def_cfa_offset 16
	pushq	%r15
	.cfi_def_cfa_offset 24
	pushq	%r14
	.cfi_def_cfa_offset 32
	pushq	%r12
	.cfi_def_cfa_offset 40
	pushq	%rbx
	.cfi_def_cfa_offset 48
	.cfi_offset %rbx, -48
	.cfi_offset %r12, -40
	.cfi_offset %r14, -32
	.cfi_offset %r15, -24
	.cfi_offset %rbp, -16
	testq	%rdx, %rdx
	je	.LBB43_14
	movb	(%rsi), %al
	cmpb	$45, %al
	je	.LBB43_4
	movb	$1, %r9b
	cmpb	$43, %al
	je	.LBB43_5
	xorl	%r8d, %r8d
	jmp	.LBB43_6
.LBB43_4:
	xorl	%r9d, %r9d
.LBB43_5:
	movl	$1, %r8d
	cmpq	$2, %rdx
	jb	.LBB43_14
.LBB43_6:
	leaq	(%rsi,%r8), %r11
	movq	%rdx, %r10
	subq	%r8, %r10
	leaq	(%rsi,%rdx), %rbp
	cmpq	$4, %r10
	jb	.LBB43_15
	leaq	(%rsi,%r8), %rcx
	xorl	%r14d, %r14d
	.p2align	4, 0x90
.LBB43_8:
	cmpb	$48, (%rcx,%r14)
	jne	.LBB43_18
	leaq	(%rcx,%r14), %rbx
	cmpb	$48, 1(%rbx)
	jne	.LBB43_26
	cmpb	$48, 2(%rbx)
	jne	.LBB43_38
	cmpb	$48, 3(%rbx)
	jne	.LBB43_39
	addq	$4, %rbx
	addq	$4, %r14
	movq	%rbp, %rax
	subq	%rbx, %rax
	cmpq	$3, %rax
	ja	.LBB43_8
	addq	%r14, %rcx
	cmpq	%rbp, %rcx
	jne	.LBB43_16
	jmp	.LBB43_18
.LBB43_14:
	xorl	%r11d, %r11d
	xorl	%r14d, %r14d
	xorl	%eax, %eax
	jmp	.LBB43_37
.LBB43_15:
	xorl	%r14d, %r14d
	movq	%r11, %rcx
	cmpq	%rbp, %rcx
	je	.LBB43_18
	.p2align	4, 0x90
.LBB43_16:
	cmpb	$48, (%rcx)
	jne	.LBB43_18
	addq	$1, %rcx
	addq	$1, %r14
	cmpq	%rcx, %rbp
	jne	.LBB43_16
.LBB43_18:
	addq	%r14, %r11
	subq	%r14, %r10
	testb	%r9b, %r9b
	je	.LBB43_27
.LBB43_19:
	cmpq	%rbp, %r11
	je	.LBB43_34
	leaq	(%r14,%r8), %rax
	addq	%rax, %rsi
	subq	%r14, %rdx
	subq	%r8, %rdx
	xorl	%r11d, %r11d
	leaq	.Lanon.a8e4ed8328978708c0e7fc28f693712c.3(%rip), %r9
	xorl	%ebx, %ebx
	xorl	%ecx, %ecx
	.p2align	4, 0x90
.LBB43_21:
	movzbl	(%rsi,%rbx), %eax
	movzbl	(%rax,%r9), %eax
	cmpl	$9, %eax
	ja	.LBB43_35
	leaq	(%rsi,%rbx), %r15
	imull	$10, %r11d, %r12d
	addl	%eax, %r12d
	movq	%r15, %rax
	jo	.LBB43_24
	movq	%rcx, %rax
.LBB43_24:
	imull	$10, %r11d, %ebp
	cmovoq	%r15, %rax
	addq	$1, %rbx
	testq	%rcx, %rcx
	cmoveq	%rax, %rcx
	movl	%r12d, %r11d
	cmpq	%rbx, %rdx
	jne	.LBB43_21
	jmp	.LBB43_33
.LBB43_26:
	addq	$1, %r14
	addq	%r14, %r11
	subq	%r14, %r10
	testb	%r9b, %r9b
	jne	.LBB43_19
.LBB43_27:
	cmpq	%rbp, %r11
	je	.LBB43_34
	leaq	(%r14,%r8), %rax
	addq	%rax, %rsi
	subq	%r14, %rdx
	subq	%r8, %rdx
	xorl	%r11d, %r11d
	leaq	.Lanon.a8e4ed8328978708c0e7fc28f693712c.3(%rip), %r9
	xorl	%ebx, %ebx
	xorl	%ecx, %ecx
	.p2align	4, 0x90
.LBB43_29:
	movzbl	(%rsi,%rbx), %eax
	movzbl	(%rax,%r9), %ebp
	cmpl	$9, %ebp
	ja	.LBB43_35
	leaq	(%rsi,%rbx), %r15
	imull	$10, %r11d, %r12d
	subl	%ebp, %r12d
	movq	%r15, %rbp
	jo	.LBB43_32
	movq	%rcx, %rbp
.LBB43_32:
	imull	$10, %r11d, %eax
	cmovoq	%r15, %rbp
	addq	$1, %rbx
	testq	%rcx, %rcx
	cmoveq	%rbp, %rcx
	movl	%r12d, %r11d
	cmpq	%rbx, %rdx
	jne	.LBB43_29
.LBB43_33:
	movl	%r12d, %r11d
	jmp	.LBB43_36
.LBB43_34:
	xorl	%r11d, %r11d
	xorl	%ecx, %ecx
	jmp	.LBB43_36
.LBB43_35:
	movq	%rbx, %r10
.LBB43_36:
	addq	%r8, %r14
	addq	%r10, %r14
	testq	%rcx, %rcx
	setne	%al
.LBB43_37:
	movl	%r11d, 8(%rdi)
	movq	%r14, (%rdi)
	movb	%al, 12(%rdi)
	popq	%rbx
	.cfi_def_cfa_offset 40
	popq	%r12
	.cfi_def_cfa_offset 32
	popq	%r14
	.cfi_def_cfa_offset 24
	popq	%r15
	.cfi_def_cfa_offset 16
	popq	%rbp
	.cfi_def_cfa_offset 8
	retq
.LBB43_38:
	.cfi_def_cfa_offset 48
	addq	$2, %r14
	addq	%r14, %r11
	subq	%r14, %r10
	testb	%r9b, %r9b
	jne	.LBB43_19
	jmp	.LBB43_27
.LBB43_39:
	addq	$3, %r14
	addq	%r14, %r11
	subq	%r14, %r10
	testb	%r9b, %r9b
	jne	.LBB43_19
	jmp	.LBB43_27
.Lfunc_end43:
	.size	_ZN12lexical_core4atoi11atoi32_impl17hae592444e6e976caE, .Lfunc_end43-_ZN12lexical_core4atoi11atoi32_impl17hae592444e6e976caE
	.cfi_endproc

	.section	.text.atoi64_range,"ax",@progbits
	.globl	atoi64_range
	.p2align	4, 0x90
	.type	atoi64_range,@function
atoi64_range:
.Lfunc_begin44:
	.cfi_startproc
	subq	$24, %rsp
	.cfi_def_cfa_offset 32
	movq	%rsi, %rdx
	cmpq	%rsi, %rdi
	ja	.LBB44_4
	movq	%rdi, %rsi
	testq	%rdi, %rdi
	je	.LBB44_4
	testq	%rdx, %rdx
	je	.LBB44_4
	subq	%rsi, %rdx
	movq	%rsp, %rdi
	callq	_ZN12lexical_core4atoi11atoi64_impl17h47a609ac81e8bdf6E
	movq	(%rsp), %rax
	addq	$24, %rsp
	.cfi_def_cfa_offset 8
	retq
.LBB44_4:
	.cfi_def_cfa_offset 32
	leaq	.Lanon.a8e4ed8328978708c0e7fc28f693712c.2(%rip), %rdi
	leaq	.Lanon.e24a13fcee629b1660c14200e92551c1.14(%rip), %rdx
	movl	$70, %esi
	callq	_ZN3std9panicking11begin_panic17hc53bd1a638d5bd8cE
	ud2
.Lfunc_end44:
	.size	atoi64_range, .Lfunc_end44-atoi64_range
	.cfi_endproc

	.section	.text._ZN12lexical_core4atoi11atoi64_impl17h47a609ac81e8bdf6E,"ax",@progbits
	.p2align	4, 0x90
	.type	_ZN12lexical_core4atoi11atoi64_impl17h47a609ac81e8bdf6E,@function
_ZN12lexical_core4atoi11atoi64_impl17h47a609ac81e8bdf6E:
.Lfunc_begin45:
	.cfi_startproc
	pushq	%r15
	.cfi_def_cfa_offset 16
	pushq	%r14
	.cfi_def_cfa_offset 24
	pushq	%r13
	.cfi_def_cfa_offset 32
	pushq	%r12
	.cfi_def_cfa_offset 40
	pushq	%rbx
	.cfi_def_cfa_offset 48
	.cfi_offset %rbx, -48
	.cfi_offset %r12, -40
	.cfi_offset %r13, -32
	.cfi_offset %r14, -24
	.cfi_offset %r15, -16
	testq	%rdx, %rdx
	je	.LBB45_14
	movb	(%rsi), %al
	cmpb	$45, %al
	je	.LBB45_4
	movb	$1, %r9b
	cmpb	$43, %al
	je	.LBB45_5
	xorl	%r8d, %r8d
	jmp	.LBB45_6
.LBB45_4:
	xorl	%r9d, %r9d
.LBB45_5:
	movl	$1, %r8d
	cmpq	$2, %rdx
	jb	.LBB45_14
.LBB45_6:
	leaq	(%rsi,%r8), %r11
	movq	%rdx, %r10
	subq	%r8, %r10
	leaq	(%rsi,%rdx), %r15
	cmpq	$4, %r10
	jb	.LBB45_15
	leaq	(%rsi,%r8), %rax
	xorl	%r14d, %r14d
	.p2align	4, 0x90
.LBB45_8:
	cmpb	$48, (%rax,%r14)
	jne	.LBB45_18
	leaq	(%rax,%r14), %rbx
	cmpb	$48, 1(%rbx)
	jne	.LBB45_26
	cmpb	$48, 2(%rbx)
	jne	.LBB45_38
	cmpb	$48, 3(%rbx)
	jne	.LBB45_39
	addq	$4, %rbx
	addq	$4, %r14
	movq	%r15, %rcx
	subq	%rbx, %rcx
	cmpq	$3, %rcx
	ja	.LBB45_8
	addq	%r14, %rax
	cmpq	%r15, %rax
	jne	.LBB45_16
	jmp	.LBB45_18
.LBB45_14:
	xorl	%r14d, %r14d
	xorl	%r11d, %r11d
	xorl	%eax, %eax
	jmp	.LBB45_37
.LBB45_15:
	xorl	%r14d, %r14d
	movq	%r11, %rax
	cmpq	%r15, %rax
	je	.LBB45_18
	.p2align	4, 0x90
.LBB45_16:
	cmpb	$48, (%rax)
	jne	.LBB45_18
	addq	$1, %rax
	addq	$1, %r14
	cmpq	%rax, %r15
	jne	.LBB45_16
.LBB45_18:
	addq	%r14, %r11
	subq	%r14, %r10
	testb	%r9b, %r9b
	je	.LBB45_27
.LBB45_19:
	cmpq	%r15, %r11
	je	.LBB45_34
	leaq	(%r14,%r8), %rax
	addq	%rax, %rsi
	subq	%r14, %rdx
	subq	%r8, %rdx
	xorl	%r11d, %r11d
	leaq	.Lanon.a8e4ed8328978708c0e7fc28f693712c.3(%rip), %r9
	xorl	%ebx, %ebx
	xorl	%eax, %eax
	.p2align	4, 0x90
.LBB45_21:
	movzbl	(%rsi,%rbx), %ecx
	movzbl	(%rcx,%r9), %ecx
	cmpq	$9, %rcx
	ja	.LBB45_35
	leaq	(%rsi,%rbx), %r15
	imulq	$10, %r11, %r12
	addq	%rcx, %r12
	movq	%r15, %r13
	jo	.LBB45_24
	movq	%rax, %r13
.LBB45_24:
	imulq	$10, %r11, %rcx
	cmovoq	%r15, %r13
	addq	$1, %rbx
	testq	%rax, %rax
	cmoveq	%r13, %rax
	movq	%r12, %r11
	cmpq	%rbx, %rdx
	jne	.LBB45_21
	jmp	.LBB45_33
.LBB45_26:
	addq	$1, %r14
	addq	%r14, %r11
	subq	%r14, %r10
	testb	%r9b, %r9b
	jne	.LBB45_19
.LBB45_27:
	cmpq	%r15, %r11
	je	.LBB45_34
	leaq	(%r14,%r8), %rax
	addq	%rax, %rsi
	subq	%r14, %rdx
	subq	%r8, %rdx
	xorl	%r11d, %r11d
	leaq	.Lanon.a8e4ed8328978708c0e7fc28f693712c.3(%rip), %r9
	xorl	%ebx, %ebx
	xorl	%eax, %eax
	.p2align	4, 0x90
.LBB45_29:
	movzbl	(%rsi,%rbx), %ecx
	movzbl	(%rcx,%r9), %ecx
	cmpq	$9, %rcx
	ja	.LBB45_35
	leaq	(%rsi,%rbx), %r15
	imulq	$10, %r11, %r12
	subq	%rcx, %r12
	movq	%r15, %r13
	jo	.LBB45_32
	movq	%rax, %r13
.LBB45_32:
	imulq	$10, %r11, %rcx
	cmovoq	%r15, %r13
	addq	$1, %rbx
	testq	%rax, %rax
	cmoveq	%r13, %rax
	movq	%r12, %r11
	cmpq	%rbx, %rdx
	jne	.LBB45_29
.LBB45_33:
	movq	%r12, %r11
	jmp	.LBB45_36
.LBB45_34:
	xorl	%r11d, %r11d
	xorl	%eax, %eax
	jmp	.LBB45_36
.LBB45_35:
	movq	%rbx, %r10
.LBB45_36:
	addq	%r8, %r14
	addq	%r10, %r14
	testq	%rax, %rax
	setne	%al
.LBB45_37:
	movq	%r11, (%rdi)
	movq	%r14, 8(%rdi)
	movb	%al, 16(%rdi)
	popq	%rbx
	.cfi_def_cfa_offset 40
	popq	%r12
	.cfi_def_cfa_offset 32
	popq	%r13
	.cfi_def_cfa_offset 24
	popq	%r14
	.cfi_def_cfa_offset 16
	popq	%r15
	.cfi_def_cfa_offset 8
	retq
.LBB45_38:
	.cfi_def_cfa_offset 48
	addq	$2, %r14
	addq	%r14, %r11
	subq	%r14, %r10
	testb	%r9b, %r9b
	jne	.LBB45_19
	jmp	.LBB45_27
.LBB45_39:
	addq	$3, %r14
	addq	%r14, %r11
	subq	%r14, %r10
	testb	%r9b, %r9b
	jne	.LBB45_19
	jmp	.LBB45_27
.Lfunc_end45:
	.size	_ZN12lexical_core4atoi11atoi64_impl17h47a609ac81e8bdf6E, .Lfunc_end45-_ZN12lexical_core4atoi11atoi64_impl17h47a609ac81e8bdf6E
	.cfi_endproc

	.section	.text.atoi128_range,"ax",@progbits
	.globl	atoi128_range
	.p2align	4, 0x90
	.type	atoi128_range,@function
atoi128_range:
.Lfunc_begin46:
	.cfi_startproc
	subq	$40, %rsp
	.cfi_def_cfa_offset 48
	movq	%rsi, %rdx
	cmpq	%rsi, %rdi
	ja	.LBB46_4
	movq	%rdi, %rsi
	testq	%rdi, %rdi
	je	.LBB46_4
	testq	%rdx, %rdx
	je	.LBB46_4
	subq	%rsi, %rdx
	leaq	8(%rsp), %rdi
	callq	_ZN12lexical_core4atoi12atoi128_impl17h892f071ce02b5c74E
	movq	8(%rsp), %rax
	movq	16(%rsp), %rdx
	addq	$40, %rsp
	.cfi_def_cfa_offset 8
	retq
.LBB46_4:
	.cfi_def_cfa_offset 48
	leaq	.Lanon.a8e4ed8328978708c0e7fc28f693712c.2(%rip), %rdi
	leaq	.Lanon.e24a13fcee629b1660c14200e92551c1.15(%rip), %rdx
	movl	$70, %esi
	callq	_ZN3std9panicking11begin_panic17hc53bd1a638d5bd8cE
	ud2
.Lfunc_end46:
	.size	atoi128_range, .Lfunc_end46-atoi128_range
	.cfi_endproc

	.section	.text._ZN12lexical_core4atoi12atoi128_impl17h892f071ce02b5c74E,"ax",@progbits
	.p2align	4, 0x90
	.type	_ZN12lexical_core4atoi12atoi128_impl17h892f071ce02b5c74E,@function
_ZN12lexical_core4atoi12atoi128_impl17h892f071ce02b5c74E:
.Lfunc_begin47:
	.cfi_startproc
	pushq	%rbp
	.cfi_def_cfa_offset 16
	pushq	%r15
	.cfi_def_cfa_offset 24
	pushq	%r14
	.cfi_def_cfa_offset 32
	pushq	%r13
	.cfi_def_cfa_offset 40
	pushq	%r12
	.cfi_def_cfa_offset 48
	pushq	%rbx
	.cfi_def_cfa_offset 56
	subq	$56, %rsp
	.cfi_def_cfa_offset 112
	.cfi_offset %rbx, -56
	.cfi_offset %r12, -48
	.cfi_offset %r13, -40
	.cfi_offset %r14, -32
	.cfi_offset %r15, -24
	.cfi_offset %rbp, -16
	testq	%rdx, %rdx
	je	.LBB47_1
	movq	%rdx, %r15
	movq	%rsi, %r10
	movb	(%rsi), %cl
	cmpb	$45, %cl
	je	.LBB47_5
	movb	$1, %r8b
	cmpb	$43, %cl
	je	.LBB47_6
	xorl	%ecx, %ecx
	jmp	.LBB47_7
.LBB47_5:
	xorl	%r8d, %r8d
.LBB47_6:
	movl	$1, %ecx
	cmpq	$2, %r15
	jb	.LBB47_1
.LBB47_7:
	leaq	(%r10,%rcx), %r9
	movq	%r15, %r14
	subq	%rcx, %r14
	leaq	(%r10,%r15), %rax
	cmpq	$4, %r14
	jb	.LBB47_8
	leaq	(%r10,%rcx), %rsi
	xorl	%r13d, %r13d
	.p2align	4, 0x90
.LBB47_14:
	cmpb	$48, (%rsi,%r13)
	jne	.LBB47_22
	leaq	(%rsi,%r13), %rbx
	cmpb	$48, 1(%rbx)
	jne	.LBB47_16
	cmpb	$48, 2(%rbx)
	jne	.LBB47_18
	cmpb	$48, 3(%rbx)
	jne	.LBB47_21
	addq	$4, %rbx
	addq	$4, %r13
	movq	%rax, %rbp
	subq	%rbx, %rbp
	cmpq	$3, %rbp
	ja	.LBB47_14
	addq	%r13, %rsi
	cmpq	%rax, %rsi
	jne	.LBB47_11
	jmp	.LBB47_22
.LBB47_1:
	xorl	%r13d, %r13d
	xorl	%eax, %eax
	xorl	%esi, %esi
	xorl	%ecx, %ecx
	jmp	.LBB47_39
.LBB47_8:
	xorl	%r13d, %r13d
	movq	%r9, %rsi
	cmpq	%rax, %rsi
	je	.LBB47_22
	.p2align	4, 0x90
.LBB47_11:
	cmpb	$48, (%rsi)
	jne	.LBB47_22
	addq	$1, %rsi
	addq	$1, %r13
	cmpq	%rsi, %rax
	jne	.LBB47_11
.LBB47_22:
	addq	%r13, %r9
	subq	%r13, %r14
	testb	%r8b, %r8b
	je	.LBB47_30
.LBB47_23:
	cmpq	%rax, %r9
	je	.LBB47_24
	movq	%r14, 16(%rsp)
	movq	%rdi, 8(%rsp)
	leaq	(%rcx,%r13), %rax
	addq	%rax, %r10
	subq	%r13, %r15
	movq	%rcx, (%rsp)
	subq	%rcx, %r15
	xorl	%eax, %eax
	xorl	%esi, %esi
	xorl	%r14d, %r14d
	xorl	%ebp, %ebp
	movq	%r15, 48(%rsp)
	movq	%r10, 24(%rsp)
	.p2align	4, 0x90
.LBB47_26:
	movzbl	(%r10,%r14), %ecx
	leaq	.Lanon.a8e4ed8328978708c0e7fc28f693712c.3(%rip), %rdi
	movzbl	(%rcx,%rdi), %ecx
	cmpb	$9, %cl
	ja	.LBB47_33
	leaq	(%r10,%r14), %r12
	movzbl	%cl, %r15d
	addq	$1, %r14
	movq	$0, 32(%rsp)
	movl	$10, %edx
	xorl	%ecx, %ecx
	movq	%rax, %rdi
	leaq	32(%rsp), %r8
	callq	*__muloti4@GOTPCREL(%rip)
	addq	%r15, %rax
	movq	%rdx, %rsi
	adcq	$0, %rsi
	setns	%cl
	testq	%rdx, %rdx
	setns	%dl
	cmpb	%cl, %dl
	setne	%bl
	movq	%r12, %rcx
	testb	%bl, %dl
	jne	.LBB47_29
	movq	%rbp, %rcx
.LBB47_29:
	cmpq	$0, 32(%rsp)
	cmovneq	%r12, %rcx
	testq	%rbp, %rbp
	cmoveq	%rcx, %rbp
	movq	48(%rsp), %r15
	cmpq	%r14, %r15
	movq	24(%rsp), %r10
	jne	.LBB47_26
	jmp	.LBB47_37
.LBB47_16:
	addq	$1, %r13
	addq	%r13, %r9
	subq	%r13, %r14
	testb	%r8b, %r8b
	jne	.LBB47_23
.LBB47_30:
	cmpq	%rax, %r9
	je	.LBB47_24
	movq	%r14, 16(%rsp)
	movq	%rdi, 8(%rsp)
	leaq	(%rcx,%r13), %rax
	addq	%rax, %r10
	subq	%r13, %r15
	movq	%rcx, (%rsp)
	subq	%rcx, %r15
	xorl	%eax, %eax
	xorl	%esi, %esi
	xorl	%r14d, %r14d
	xorl	%ebp, %ebp
	movq	%r10, 24(%rsp)
	.p2align	4, 0x90
.LBB47_32:
	movzbl	(%r10,%r14), %ecx
	leaq	.Lanon.a8e4ed8328978708c0e7fc28f693712c.3(%rip), %rdi
	movzbl	(%rcx,%rdi), %ecx
	cmpb	$9, %cl
	ja	.LBB47_33
	leaq	(%r10,%r14), %r12
	movzbl	%cl, %ebx
	addq	$1, %r14
	movq	$0, 40(%rsp)
	movl	$10, %edx
	xorl	%ecx, %ecx
	movq	%rax, %rdi
	leaq	40(%rsp), %r8
	callq	*__muloti4@GOTPCREL(%rip)
	subq	%rbx, %rax
	movq	%rdx, %rsi
	sbbq	$0, %rsi
	setns	%cl
	testq	%rdx, %rdx
	sets	%dl
	setns	%bl
	cmpb	%cl, %bl
	setne	%bl
	movq	%r12, %rcx
	testb	%bl, %dl
	jne	.LBB47_36
	movq	%rbp, %rcx
.LBB47_36:
	cmpq	$0, 40(%rsp)
	cmovneq	%r12, %rcx
	testq	%rbp, %rbp
	cmoveq	%rcx, %rbp
	cmpq	%r14, %r15
	movq	24(%rsp), %r10
	jne	.LBB47_32
.LBB47_37:
	movq	8(%rsp), %rdi
	movq	(%rsp), %rcx
	movq	16(%rsp), %r14
	jmp	.LBB47_38
.LBB47_24:
	xorl	%eax, %eax
	xorl	%esi, %esi
	xorl	%ebp, %ebp
	jmp	.LBB47_38
.LBB47_33:
	movq	8(%rsp), %rdi
	movq	(%rsp), %rcx
.LBB47_38:
	addq	%rcx, %r13
	addq	%r14, %r13
	testq	%rbp, %rbp
	setne	%cl
.LBB47_39:
	movq	%rax, (%rdi)
	movq	%rsi, 8(%rdi)
	movq	%r13, 16(%rdi)
	movb	%cl, 24(%rdi)
	addq	$56, %rsp
	.cfi_def_cfa_offset 56
	popq	%rbx
	.cfi_def_cfa_offset 48
	popq	%r12
	.cfi_def_cfa_offset 40
	popq	%r13
	.cfi_def_cfa_offset 32
	popq	%r14
	.cfi_def_cfa_offset 24
	popq	%r15
	.cfi_def_cfa_offset 16
	popq	%rbp
	.cfi_def_cfa_offset 8
	retq
.LBB47_18:
	.cfi_def_cfa_offset 112
	addq	$2, %r13
	addq	%r13, %r9
	subq	%r13, %r14
	testb	%r8b, %r8b
	jne	.LBB47_23
	jmp	.LBB47_30
.LBB47_21:
	addq	$3, %r13
	addq	%r13, %r9
	subq	%r13, %r14
	testb	%r8b, %r8b
	jne	.LBB47_23
	jmp	.LBB47_30
.Lfunc_end47:
	.size	_ZN12lexical_core4atoi12atoi128_impl17h892f071ce02b5c74E, .Lfunc_end47-_ZN12lexical_core4atoi12atoi128_impl17h892f071ce02b5c74E
	.cfi_endproc

	.section	.text.atoisize_range,"ax",@progbits
	.globl	atoisize_range
	.p2align	4, 0x90
	.type	atoisize_range,@function
atoisize_range:
.Lfunc_begin48:
	.cfi_startproc
	subq	$24, %rsp
	.cfi_def_cfa_offset 32
	movq	%rsi, %rdx
	cmpq	%rsi, %rdi
	ja	.LBB48_4
	movq	%rdi, %rsi
	testq	%rdi, %rdi
	je	.LBB48_4
	testq	%rdx, %rdx
	je	.LBB48_4
	subq	%rsi, %rdx
	movq	%rsp, %rdi
	callq	_ZN12lexical_core4atoi11atoi64_impl17h47a609ac81e8bdf6E
	movq	(%rsp), %rax
	addq	$24, %rsp
	.cfi_def_cfa_offset 8
	retq
.LBB48_4:
	.cfi_def_cfa_offset 32
	leaq	.Lanon.a8e4ed8328978708c0e7fc28f693712c.2(%rip), %rdi
	leaq	.Lanon.e24a13fcee629b1660c14200e92551c1.16(%rip), %rdx
	movl	$70, %esi
	callq	_ZN3std9panicking11begin_panic17hc53bd1a638d5bd8cE
	ud2
.Lfunc_end48:
	.size	atoisize_range, .Lfunc_end48-atoisize_range
	.cfi_endproc

	.section	.text.try_atou8_range,"ax",@progbits
	.globl	try_atou8_range
	.p2align	4, 0x90
	.type	try_atou8_range,@function
try_atou8_range:
.Lfunc_begin49:
	.cfi_startproc
	pushq	%r15
	.cfi_def_cfa_offset 16
	pushq	%r14
	.cfi_def_cfa_offset 24
	pushq	%rbx
	.cfi_def_cfa_offset 32
	subq	$16, %rsp
	.cfi_def_cfa_offset 48
	.cfi_offset %rbx, -32
	.cfi_offset %r14, -24
	.cfi_offset %r15, -16
	cmpq	%rdx, %rsi
	ja	.LBB49_11
	movq	%rsi, %rbx
	testq	%rsi, %rsi
	je	.LBB49_11
	movq	%rdx, %r15
	testq	%rdx, %rdx
	je	.LBB49_11
	movq	%rdi, %r14
	movq	%r15, %rdx
	subq	%rbx, %rdx
	movq	%rsp, %rdi
	movq	%rbx, %rsi
	callq	_ZN12lexical_core4atoi10atou8_impl17hdfa71baf59b79908E
	movb	8(%rsp), %cl
	subq	%rbx, %r15
	je	.LBB49_4
	movb	9(%rsp), %al
	testb	%al, %al
	je	.LBB49_7
	movb	%cl, (%r14)
	movl	$-1, 8(%r14)
	xorl	%eax, %eax
	jmp	.LBB49_10
.LBB49_4:
	movb	%cl, (%r14)
	movl	$-3, 8(%r14)
	xorl	%eax, %eax
	jmp	.LBB49_10
.LBB49_7:
	movq	(%rsp), %rax
	movb	%cl, (%r14)
	cmpq	%r15, %rax
	jne	.LBB49_9
	movl	$0, 8(%r14)
	xorl	%eax, %eax
	jmp	.LBB49_10
.LBB49_9:
	movl	$-2, 8(%r14)
.LBB49_10:
	movq	%rax, 16(%r14)
	movq	%r14, %rax
	addq	$16, %rsp
	.cfi_def_cfa_offset 32
	popq	%rbx
	.cfi_def_cfa_offset 24
	popq	%r14
	.cfi_def_cfa_offset 16
	popq	%r15
	.cfi_def_cfa_offset 8
	retq
.LBB49_11:
	.cfi_def_cfa_offset 48
	leaq	.Lanon.a8e4ed8328978708c0e7fc28f693712c.2(%rip), %rdi
	leaq	.Lanon.a8e4ed8328978708c0e7fc28f693712c.1(%rip), %rdx
	movl	$70, %esi
	callq	_ZN3std9panicking11begin_panic17hc53bd1a638d5bd8cE
	ud2
.Lfunc_end49:
	.size	try_atou8_range, .Lfunc_end49-try_atou8_range
	.cfi_endproc

	.section	.text.try_atou16_range,"ax",@progbits
	.globl	try_atou16_range
	.p2align	4, 0x90
	.type	try_atou16_range,@function
try_atou16_range:
.Lfunc_begin50:
	.cfi_startproc
	pushq	%r15
	.cfi_def_cfa_offset 16
	pushq	%r14
	.cfi_def_cfa_offset 24
	pushq	%rbx
	.cfi_def_cfa_offset 32
	subq	$16, %rsp
	.cfi_def_cfa_offset 48
	.cfi_offset %rbx, -32
	.cfi_offset %r14, -24
	.cfi_offset %r15, -16
	cmpq	%rdx, %rsi
	ja	.LBB50_11
	movq	%rsi, %rbx
	testq	%rsi, %rsi
	je	.LBB50_11
	movq	%rdx, %r15
	testq	%rdx, %rdx
	je	.LBB50_11
	movq	%rdi, %r14
	movq	%r15, %rdx
	subq	%rbx, %rdx
	movq	%rsp, %rdi
	movq	%rbx, %rsi
	callq	_ZN12lexical_core4atoi11atou16_impl17hcde02d3985b3ecbaE
	movzwl	8(%rsp), %ecx
	subq	%rbx, %r15
	je	.LBB50_4
	movb	10(%rsp), %al
	testb	%al, %al
	je	.LBB50_7
	movw	%cx, (%r14)
	movl	$-1, 8(%r14)
	xorl	%eax, %eax
	jmp	.LBB50_10
.LBB50_4:
	movw	%cx, (%r14)
	movl	$-3, 8(%r14)
	xorl	%eax, %eax
	jmp	.LBB50_10
.LBB50_7:
	movq	(%rsp), %rax
	movw	%cx, (%r14)
	cmpq	%r15, %rax
	jne	.LBB50_9
	movl	$0, 8(%r14)
	xorl	%eax, %eax
	jmp	.LBB50_10
.LBB50_9:
	movl	$-2, 8(%r14)
.LBB50_10:
	movq	%rax, 16(%r14)
	movq	%r14, %rax
	addq	$16, %rsp
	.cfi_def_cfa_offset 32
	popq	%rbx
	.cfi_def_cfa_offset 24
	popq	%r14
	.cfi_def_cfa_offset 16
	popq	%r15
	.cfi_def_cfa_offset 8
	retq
.LBB50_11:
	.cfi_def_cfa_offset 48
	leaq	.Lanon.a8e4ed8328978708c0e7fc28f693712c.2(%rip), %rdi
	leaq	.Lanon.a8e4ed8328978708c0e7fc28f693712c.1(%rip), %rdx
	movl	$70, %esi
	callq	_ZN3std9panicking11begin_panic17hc53bd1a638d5bd8cE
	ud2
.Lfunc_end50:
	.size	try_atou16_range, .Lfunc_end50-try_atou16_range
	.cfi_endproc

	.section	.text.try_atou32_range,"ax",@progbits
	.globl	try_atou32_range
	.p2align	4, 0x90
	.type	try_atou32_range,@function
try_atou32_range:
.Lfunc_begin51:
	.cfi_startproc
	pushq	%r15
	.cfi_def_cfa_offset 16
	pushq	%r14
	.cfi_def_cfa_offset 24
	pushq	%rbx
	.cfi_def_cfa_offset 32
	subq	$16, %rsp
	.cfi_def_cfa_offset 48
	.cfi_offset %rbx, -32
	.cfi_offset %r14, -24
	.cfi_offset %r15, -16
	cmpq	%rdx, %rsi
	ja	.LBB51_11
	movq	%rsi, %rbx
	testq	%rsi, %rsi
	je	.LBB51_11
	movq	%rdx, %r15
	testq	%rdx, %rdx
	je	.LBB51_11
	movq	%rdi, %r14
	movq	%r15, %rdx
	subq	%rbx, %rdx
	movq	%rsp, %rdi
	movq	%rbx, %rsi
	callq	_ZN12lexical_core4atoi11atou32_impl17h152b10bd78770aa6E
	movl	8(%rsp), %ecx
	subq	%rbx, %r15
	je	.LBB51_4
	movb	12(%rsp), %al
	testb	%al, %al
	je	.LBB51_7
	movl	%ecx, (%r14)
	movl	$-1, 8(%r14)
	xorl	%eax, %eax
	jmp	.LBB51_10
.LBB51_4:
	movl	%ecx, (%r14)
	movl	$-3, 8(%r14)
	xorl	%eax, %eax
	jmp	.LBB51_10
.LBB51_7:
	movq	(%rsp), %rax
	movl	%ecx, (%r14)
	cmpq	%r15, %rax
	jne	.LBB51_9
	movl	$0, 8(%r14)
	xorl	%eax, %eax
	jmp	.LBB51_10
.LBB51_9:
	movl	$-2, 8(%r14)
.LBB51_10:
	movq	%rax, 16(%r14)
	movq	%r14, %rax
	addq	$16, %rsp
	.cfi_def_cfa_offset 32
	popq	%rbx
	.cfi_def_cfa_offset 24
	popq	%r14
	.cfi_def_cfa_offset 16
	popq	%r15
	.cfi_def_cfa_offset 8
	retq
.LBB51_11:
	.cfi_def_cfa_offset 48
	leaq	.Lanon.a8e4ed8328978708c0e7fc28f693712c.2(%rip), %rdi
	leaq	.Lanon.a8e4ed8328978708c0e7fc28f693712c.1(%rip), %rdx
	movl	$70, %esi
	callq	_ZN3std9panicking11begin_panic17hc53bd1a638d5bd8cE
	ud2
.Lfunc_end51:
	.size	try_atou32_range, .Lfunc_end51-try_atou32_range
	.cfi_endproc

	.section	.text.try_atou64_range,"ax",@progbits
	.globl	try_atou64_range
	.p2align	4, 0x90
	.type	try_atou64_range,@function
try_atou64_range:
.Lfunc_begin52:
	.cfi_startproc
	pushq	%r15
	.cfi_def_cfa_offset 16
	pushq	%r14
	.cfi_def_cfa_offset 24
	pushq	%rbx
	.cfi_def_cfa_offset 32
	subq	$32, %rsp
	.cfi_def_cfa_offset 64
	.cfi_offset %rbx, -32
	.cfi_offset %r14, -24
	.cfi_offset %r15, -16
	cmpq	%rdx, %rsi
	ja	.LBB52_11
	movq	%rsi, %rbx
	testq	%rsi, %rsi
	je	.LBB52_11
	movq	%rdx, %r15
	testq	%rdx, %rdx
	je	.LBB52_11
	movq	%rdi, %r14
	movq	%r15, %rdx
	subq	%rbx, %rdx
	leaq	8(%rsp), %rdi
	movq	%rbx, %rsi
	callq	_ZN12lexical_core4atoi11atou64_impl17hac5aafc7c200c12aE
	movq	8(%rsp), %rcx
	subq	%rbx, %r15
	je	.LBB52_4
	movb	24(%rsp), %al
	testb	%al, %al
	je	.LBB52_7
	movq	%rcx, (%r14)
	movl	$-1, 8(%r14)
	xorl	%eax, %eax
	jmp	.LBB52_10
.LBB52_4:
	movq	%rcx, (%r14)
	movl	$-3, 8(%r14)
	xorl	%eax, %eax
	jmp	.LBB52_10
.LBB52_7:
	movq	16(%rsp), %rax
	movq	%rcx, (%r14)
	cmpq	%r15, %rax
	jne	.LBB52_9
	movl	$0, 8(%r14)
	xorl	%eax, %eax
	jmp	.LBB52_10
.LBB52_9:
	movl	$-2, 8(%r14)
.LBB52_10:
	movq	%rax, 16(%r14)
	movq	%r14, %rax
	addq	$32, %rsp
	.cfi_def_cfa_offset 32
	popq	%rbx
	.cfi_def_cfa_offset 24
	popq	%r14
	.cfi_def_cfa_offset 16
	popq	%r15
	.cfi_def_cfa_offset 8
	retq
.LBB52_11:
	.cfi_def_cfa_offset 64
	leaq	.Lanon.a8e4ed8328978708c0e7fc28f693712c.2(%rip), %rdi
	leaq	.Lanon.a8e4ed8328978708c0e7fc28f693712c.1(%rip), %rdx
	movl	$70, %esi
	callq	_ZN3std9panicking11begin_panic17hc53bd1a638d5bd8cE
	ud2
.Lfunc_end52:
	.size	try_atou64_range, .Lfunc_end52-try_atou64_range
	.cfi_endproc

	.section	.text.try_atou128_range,"ax",@progbits
	.globl	try_atou128_range
	.p2align	4, 0x90
	.type	try_atou128_range,@function
try_atou128_range:
.Lfunc_begin53:
	.cfi_startproc
	pushq	%r15
	.cfi_def_cfa_offset 16
	pushq	%r14
	.cfi_def_cfa_offset 24
	pushq	%rbx
	.cfi_def_cfa_offset 32
	subq	$32, %rsp
	.cfi_def_cfa_offset 64
	.cfi_offset %rbx, -32
	.cfi_offset %r14, -24
	.cfi_offset %r15, -16
	cmpq	%rdx, %rsi
	ja	.LBB53_11
	movq	%rsi, %rbx
	testq	%rsi, %rsi
	je	.LBB53_11
	movq	%rdx, %r15
	testq	%rdx, %rdx
	je	.LBB53_11
	movq	%rdi, %r14
	movq	%r15, %rdx
	subq	%rbx, %rdx
	movq	%rsp, %rdi
	movq	%rbx, %rsi
	callq	_ZN12lexical_core4atoi12atou128_impl17hbe02181ca6ac1fbcE
	movq	(%rsp), %rdx
	movq	8(%rsp), %rcx
	subq	%rbx, %r15
	je	.LBB53_4
	movb	24(%rsp), %al
	testb	%al, %al
	je	.LBB53_7
	movq	%rdx, (%r14)
	movq	%rcx, 8(%r14)
	movl	$-1, 16(%r14)
	xorl	%eax, %eax
	jmp	.LBB53_10
.LBB53_4:
	movq	%rdx, (%r14)
	movq	%rcx, 8(%r14)
	movl	$-3, 16(%r14)
	xorl	%eax, %eax
	jmp	.LBB53_10
.LBB53_7:
	movq	16(%rsp), %rax
	movq	%rdx, (%r14)
	movq	%rcx, 8(%r14)
	cmpq	%r15, %rax
	jne	.LBB53_9
	movl	$0, 16(%r14)
	xorl	%eax, %eax
	jmp	.LBB53_10
.LBB53_9:
	movl	$-2, 16(%r14)
.LBB53_10:
	movq	%rax, 24(%r14)
	movq	%r14, %rax
	addq	$32, %rsp
	.cfi_def_cfa_offset 32
	popq	%rbx
	.cfi_def_cfa_offset 24
	popq	%r14
	.cfi_def_cfa_offset 16
	popq	%r15
	.cfi_def_cfa_offset 8
	retq
.LBB53_11:
	.cfi_def_cfa_offset 64
	leaq	.Lanon.a8e4ed8328978708c0e7fc28f693712c.2(%rip), %rdi
	leaq	.Lanon.a8e4ed8328978708c0e7fc28f693712c.1(%rip), %rdx
	movl	$70, %esi
	callq	_ZN3std9panicking11begin_panic17hc53bd1a638d5bd8cE
	ud2
.Lfunc_end53:
	.size	try_atou128_range, .Lfunc_end53-try_atou128_range
	.cfi_endproc

	.section	.text.try_atoi8_range,"ax",@progbits
	.globl	try_atoi8_range
	.p2align	4, 0x90
	.type	try_atoi8_range,@function
try_atoi8_range:
.Lfunc_begin54:
	.cfi_startproc
	pushq	%r15
	.cfi_def_cfa_offset 16
	pushq	%r14
	.cfi_def_cfa_offset 24
	pushq	%rbx
	.cfi_def_cfa_offset 32
	subq	$16, %rsp
	.cfi_def_cfa_offset 48
	.cfi_offset %rbx, -32
	.cfi_offset %r14, -24
	.cfi_offset %r15, -16
	cmpq	%rdx, %rsi
	ja	.LBB54_11
	movq	%rsi, %rbx
	testq	%rsi, %rsi
	je	.LBB54_11
	movq	%rdx, %r15
	testq	%rdx, %rdx
	je	.LBB54_11
	movq	%rdi, %r14
	movq	%r15, %rdx
	subq	%rbx, %rdx
	movq	%rsp, %rdi
	movq	%rbx, %rsi
	callq	_ZN12lexical_core4atoi10atoi8_impl17h1d78aeb19f08c722E
	movb	8(%rsp), %cl
	subq	%rbx, %r15
	je	.LBB54_4
	movb	9(%rsp), %al
	testb	%al, %al
	je	.LBB54_7
	movb	%cl, (%r14)
	movl	$-1, 8(%r14)
	xorl	%eax, %eax
	jmp	.LBB54_10
.LBB54_4:
	movb	%cl, (%r14)
	movl	$-3, 8(%r14)
	xorl	%eax, %eax
	jmp	.LBB54_10
.LBB54_7:
	movq	(%rsp), %rax
	movb	%cl, (%r14)
	cmpq	%r15, %rax
	jne	.LBB54_9
	movl	$0, 8(%r14)
	xorl	%eax, %eax
	jmp	.LBB54_10
.LBB54_9:
	movl	$-2, 8(%r14)
.LBB54_10:
	movq	%rax, 16(%r14)
	movq	%r14, %rax
	addq	$16, %rsp
	.cfi_def_cfa_offset 32
	popq	%rbx
	.cfi_def_cfa_offset 24
	popq	%r14
	.cfi_def_cfa_offset 16
	popq	%r15
	.cfi_def_cfa_offset 8
	retq
.LBB54_11:
	.cfi_def_cfa_offset 48
	leaq	.Lanon.a8e4ed8328978708c0e7fc28f693712c.2(%rip), %rdi
	leaq	.Lanon.a8e4ed8328978708c0e7fc28f693712c.1(%rip), %rdx
	movl	$70, %esi
	callq	_ZN3std9panicking11begin_panic17hc53bd1a638d5bd8cE
	ud2
.Lfunc_end54:
	.size	try_atoi8_range, .Lfunc_end54-try_atoi8_range
	.cfi_endproc

	.section	.text.try_atoi16_range,"ax",@progbits
	.globl	try_atoi16_range
	.p2align	4, 0x90
	.type	try_atoi16_range,@function
try_atoi16_range:
.Lfunc_begin55:
	.cfi_startproc
	pushq	%r15
	.cfi_def_cfa_offset 16
	pushq	%r14
	.cfi_def_cfa_offset 24
	pushq	%rbx
	.cfi_def_cfa_offset 32
	subq	$16, %rsp
	.cfi_def_cfa_offset 48
	.cfi_offset %rbx, -32
	.cfi_offset %r14, -24
	.cfi_offset %r15, -16
	cmpq	%rdx, %rsi
	ja	.LBB55_11
	movq	%rsi, %rbx
	testq	%rsi, %rsi
	je	.LBB55_11
	movq	%rdx, %r15
	testq	%rdx, %rdx
	je	.LBB55_11
	movq	%rdi, %r14
	movq	%r15, %rdx
	subq	%rbx, %rdx
	movq	%rsp, %rdi
	movq	%rbx, %rsi
	callq	_ZN12lexical_core4atoi11atoi16_impl17hc722edf89e60afe1E
	movzwl	8(%rsp), %ecx
	subq	%rbx, %r15
	je	.LBB55_4
	movb	10(%rsp), %al
	testb	%al, %al
	je	.LBB55_7
	movw	%cx, (%r14)
	movl	$-1, 8(%r14)
	xorl	%eax, %eax
	jmp	.LBB55_10
.LBB55_4:
	movw	%cx, (%r14)
	movl	$-3, 8(%r14)
	xorl	%eax, %eax
	jmp	.LBB55_10
.LBB55_7:
	movq	(%rsp), %rax
	movw	%cx, (%r14)
	cmpq	%r15, %rax
	jne	.LBB55_9
	movl	$0, 8(%r14)
	xorl	%eax, %eax
	jmp	.LBB55_10
.LBB55_9:
	movl	$-2, 8(%r14)
.LBB55_10:
	movq	%rax, 16(%r14)
	movq	%r14, %rax
	addq	$16, %rsp
	.cfi_def_cfa_offset 32
	popq	%rbx
	.cfi_def_cfa_offset 24
	popq	%r14
	.cfi_def_cfa_offset 16
	popq	%r15
	.cfi_def_cfa_offset 8
	retq
.LBB55_11:
	.cfi_def_cfa_offset 48
	leaq	.Lanon.a8e4ed8328978708c0e7fc28f693712c.2(%rip), %rdi
	leaq	.Lanon.a8e4ed8328978708c0e7fc28f693712c.1(%rip), %rdx
	movl	$70, %esi
	callq	_ZN3std9panicking11begin_panic17hc53bd1a638d5bd8cE
	ud2
.Lfunc_end55:
	.size	try_atoi16_range, .Lfunc_end55-try_atoi16_range
	.cfi_endproc

	.section	.text.try_atoi32_range,"ax",@progbits
	.globl	try_atoi32_range
	.p2align	4, 0x90
	.type	try_atoi32_range,@function
try_atoi32_range:
.Lfunc_begin56:
	.cfi_startproc
	pushq	%r15
	.cfi_def_cfa_offset 16
	pushq	%r14
	.cfi_def_cfa_offset 24
	pushq	%rbx
	.cfi_def_cfa_offset 32
	subq	$16, %rsp
	.cfi_def_cfa_offset 48
	.cfi_offset %rbx, -32
	.cfi_offset %r14, -24
	.cfi_offset %r15, -16
	cmpq	%rdx, %rsi
	ja	.LBB56_11
	movq	%rsi, %rbx
	testq	%rsi, %rsi
	je	.LBB56_11
	movq	%rdx, %r15
	testq	%rdx, %rdx
	je	.LBB56_11
	movq	%rdi, %r14
	movq	%r15, %rdx
	subq	%rbx, %rdx
	movq	%rsp, %rdi
	movq	%rbx, %rsi
	callq	_ZN12lexical_core4atoi11atoi32_impl17hae592444e6e976caE
	movl	8(%rsp), %ecx
	subq	%rbx, %r15
	je	.LBB56_4
	movb	12(%rsp), %al
	testb	%al, %al
	je	.LBB56_7
	movl	%ecx, (%r14)
	movl	$-1, 8(%r14)
	xorl	%eax, %eax
	jmp	.LBB56_10
.LBB56_4:
	movl	%ecx, (%r14)
	movl	$-3, 8(%r14)
	xorl	%eax, %eax
	jmp	.LBB56_10
.LBB56_7:
	movq	(%rsp), %rax
	movl	%ecx, (%r14)
	cmpq	%r15, %rax
	jne	.LBB56_9
	movl	$0, 8(%r14)
	xorl	%eax, %eax
	jmp	.LBB56_10
.LBB56_9:
	movl	$-2, 8(%r14)
.LBB56_10:
	movq	%rax, 16(%r14)
	movq	%r14, %rax
	addq	$16, %rsp
	.cfi_def_cfa_offset 32
	popq	%rbx
	.cfi_def_cfa_offset 24
	popq	%r14
	.cfi_def_cfa_offset 16
	popq	%r15
	.cfi_def_cfa_offset 8
	retq
.LBB56_11:
	.cfi_def_cfa_offset 48
	leaq	.Lanon.a8e4ed8328978708c0e7fc28f693712c.2(%rip), %rdi
	leaq	.Lanon.a8e4ed8328978708c0e7fc28f693712c.1(%rip), %rdx
	movl	$70, %esi
	callq	_ZN3std9panicking11begin_panic17hc53bd1a638d5bd8cE
	ud2
.Lfunc_end56:
	.size	try_atoi32_range, .Lfunc_end56-try_atoi32_range
	.cfi_endproc

	.section	.text.try_atoi64_range,"ax",@progbits
	.globl	try_atoi64_range
	.p2align	4, 0x90
	.type	try_atoi64_range,@function
try_atoi64_range:
.Lfunc_begin57:
	.cfi_startproc
	pushq	%r15
	.cfi_def_cfa_offset 16
	pushq	%r14
	.cfi_def_cfa_offset 24
	pushq	%rbx
	.cfi_def_cfa_offset 32
	subq	$32, %rsp
	.cfi_def_cfa_offset 64
	.cfi_offset %rbx, -32
	.cfi_offset %r14, -24
	.cfi_offset %r15, -16
	cmpq	%rdx, %rsi
	ja	.LBB57_11
	movq	%rsi, %rbx
	testq	%rsi, %rsi
	je	.LBB57_11
	movq	%rdx, %r15
	testq	%rdx, %rdx
	je	.LBB57_11
	movq	%rdi, %r14
	movq	%r15, %rdx
	subq	%rbx, %rdx
	leaq	8(%rsp), %rdi
	movq	%rbx, %rsi
	callq	_ZN12lexical_core4atoi11atoi64_impl17h47a609ac81e8bdf6E
	movq	8(%rsp), %rcx
	subq	%rbx, %r15
	je	.LBB57_4
	movb	24(%rsp), %al
	testb	%al, %al
	je	.LBB57_7
	movq	%rcx, (%r14)
	movl	$-1, 8(%r14)
	xorl	%eax, %eax
	jmp	.LBB57_10
.LBB57_4:
	movq	%rcx, (%r14)
	movl	$-3, 8(%r14)
	xorl	%eax, %eax
	jmp	.LBB57_10
.LBB57_7:
	movq	16(%rsp), %rax
	movq	%rcx, (%r14)
	cmpq	%r15, %rax
	jne	.LBB57_9
	movl	$0, 8(%r14)
	xorl	%eax, %eax
	jmp	.LBB57_10
.LBB57_9:
	movl	$-2, 8(%r14)
.LBB57_10:
	movq	%rax, 16(%r14)
	movq	%r14, %rax
	addq	$32, %rsp
	.cfi_def_cfa_offset 32
	popq	%rbx
	.cfi_def_cfa_offset 24
	popq	%r14
	.cfi_def_cfa_offset 16
	popq	%r15
	.cfi_def_cfa_offset 8
	retq
.LBB57_11:
	.cfi_def_cfa_offset 64
	leaq	.Lanon.a8e4ed8328978708c0e7fc28f693712c.2(%rip), %rdi
	leaq	.Lanon.a8e4ed8328978708c0e7fc28f693712c.1(%rip), %rdx
	movl	$70, %esi
	callq	_ZN3std9panicking11begin_panic17hc53bd1a638d5bd8cE
	ud2
.Lfunc_end57:
	.size	try_atoi64_range, .Lfunc_end57-try_atoi64_range
	.cfi_endproc

	.section	.text.try_atoi128_range,"ax",@progbits
	.globl	try_atoi128_range
	.p2align	4, 0x90
	.type	try_atoi128_range,@function
try_atoi128_range:
.Lfunc_begin58:
	.cfi_startproc
	pushq	%r15
	.cfi_def_cfa_offset 16
	pushq	%r14
	.cfi_def_cfa_offset 24
	pushq	%rbx
	.cfi_def_cfa_offset 32
	subq	$32, %rsp
	.cfi_def_cfa_offset 64
	.cfi_offset %rbx, -32
	.cfi_offset %r14, -24
	.cfi_offset %r15, -16
	cmpq	%rdx, %rsi
	ja	.LBB58_11
	movq	%rsi, %rbx
	testq	%rsi, %rsi
	je	.LBB58_11
	movq	%rdx, %r15
	testq	%rdx, %rdx
	je	.LBB58_11
	movq	%rdi, %r14
	movq	%r15, %rdx
	subq	%rbx, %rdx
	movq	%rsp, %rdi
	movq	%rbx, %rsi
	callq	_ZN12lexical_core4atoi12atoi128_impl17h892f071ce02b5c74E
	movq	(%rsp), %rdx
	movq	8(%rsp), %rcx
	subq	%rbx, %r15
	je	.LBB58_4
	movb	24(%rsp), %al
	testb	%al, %al
	je	.LBB58_7
	movq	%rdx, (%r14)
	movq	%rcx, 8(%r14)
	movl	$-1, 16(%r14)
	xorl	%eax, %eax
	jmp	.LBB58_10
.LBB58_4:
	movq	%rdx, (%r14)
	movq	%rcx, 8(%r14)
	movl	$-3, 16(%r14)
	xorl	%eax, %eax
	jmp	.LBB58_10
.LBB58_7:
	movq	16(%rsp), %rax
	movq	%rdx, (%r14)
	movq	%rcx, 8(%r14)
	cmpq	%r15, %rax
	jne	.LBB58_9
	movl	$0, 16(%r14)
	xorl	%eax, %eax
	jmp	.LBB58_10
.LBB58_9:
	movl	$-2, 16(%r14)
.LBB58_10:
	movq	%rax, 24(%r14)
	movq	%r14, %rax
	addq	$32, %rsp
	.cfi_def_cfa_offset 32
	popq	%rbx
	.cfi_def_cfa_offset 24
	popq	%r14
	.cfi_def_cfa_offset 16
	popq	%r15
	.cfi_def_cfa_offset 8
	retq
.LBB58_11:
	.cfi_def_cfa_offset 64
	leaq	.Lanon.a8e4ed8328978708c0e7fc28f693712c.2(%rip), %rdi
	leaq	.Lanon.a8e4ed8328978708c0e7fc28f693712c.1(%rip), %rdx
	movl	$70, %esi
	callq	_ZN3std9panicking11begin_panic17hc53bd1a638d5bd8cE
	ud2
.Lfunc_end58:
	.size	try_atoi128_range, .Lfunc_end58-try_atoi128_range
	.cfi_endproc

	.section	.text._ZN12lexical_core4atof9algorithm4math5small10imul_power17hab411dbeb8da1948E,"ax",@progbits
	.p2align	4, 0x90
	.type	_ZN12lexical_core4atof9algorithm4math5small10imul_power17hab411dbeb8da1948E,@function
_ZN12lexical_core4atof9algorithm4math5small10imul_power17hab411dbeb8da1948E:
.Lfunc_begin59:
	.cfi_startproc
	pushq	%rbp
	.cfi_def_cfa_offset 16
	pushq	%r15
	.cfi_def_cfa_offset 24
	pushq	%r14
	.cfi_def_cfa_offset 32
	pushq	%r13
	.cfi_def_cfa_offset 40
	pushq	%r12
	.cfi_def_cfa_offset 48
	pushq	%rbx
	.cfi_def_cfa_offset 56
	subq	$552, %rsp
	.cfi_def_cfa_offset 608
	.cfi_offset %rbx, -56
	.cfi_offset %r12, -48
	.cfi_offset %r13, -40
	.cfi_offset %r14, -32
	.cfi_offset %r15, -24
	.cfi_offset %rbp, -16
	movq	%rdi, %r10
	cmpl	$5, %esi
	je	.LBB59_1
	cmpl	$10, %esi
	jne	.LBB59_66
	leaq	anon.c3ad055338a366c33e23e2dd169a30a8.3.llvm.6003641991083973417(%rip), %rbp
	movl	$20, %r8d
	testl	%edx, %edx
	je	.LBB59_62
.LBB59_5:
	je	.LBB59_6
	bsrl	%edx, %eax
	xorl	$31, %eax
	jmp	.LBB59_8
.LBB59_1:
	leaq	anon.c3ad055338a366c33e23e2dd169a30a8.4.llvm.6003641991083973417(%rip), %rbp
	movl	$28, %r8d
	testl	%edx, %edx
	jne	.LBB59_5
	jmp	.LBB59_62
.LBB59_6:
	movl	$32, %eax
.LBB59_8:
	movl	%eax, %eax
	movl	$31, %esi
	subq	%rax, %rsi
	cmpq	$14, %rsi
	jae	.LBB59_63
	leaq	8(%r10), %rbx
	movq	(%r10), %rax
	shlq	$4, %rsi
	leaq	anon.d40ce0d908814db1d08d1ec60e7ece38.35.llvm.8558968605755664438(%rip), %rdi
	movq	8(%rsi,%rdi), %rcx
	addq	%rax, %rcx
	cmpq	$64, %rcx
	movq	%r10, 16(%rsp)
	movq	%rbx, 8(%rsp)
	jae	.LBB59_10
	leaq	-1(%r8), %r14
	movl	%edx, %esi
	cmpq	%rsi, %r14
	ja	.LBB59_33
	movq	%rbp, (%rsp)
	movq	%rbp, %rdi
	movq	%r8, 24(%rsp)
	movq	-8(%rbp,%r8,8), %r9
	leaq	(%r10,%rax,8), %rcx
	addq	$8, %rcx
	cmpq	%rcx, %rbx
	jne	.LBB59_19
	jmp	.LBB59_31
	.p2align	4, 0x90
.LBB59_67:
	movq	(%r10), %rax
	leaq	(%r10,%rax,8), %rcx
	addq	$8, %rcx
	cmpq	%rcx, %rbx
	je	.LBB59_31
.LBB59_19:
	leaq	-8(,%rax,8), %rcx
	movq	%rcx, %rax
	shrq	$3, %rax
	addq	$1, %rax
	movl	%eax, %r13d
	andl	$3, %r13d
	cmpq	$24, %rcx
	jae	.LBB59_27
	xorl	%r8d, %r8d
	movq	%rbx, %rbp
	movq	%r8, %rdx
	testq	%r13, %r13
	jne	.LBB59_22
	jmp	.LBB59_24
	.p2align	4, 0x90
.LBB59_27:
	movl	$1, %ecx
	subq	%rax, %rcx
	leaq	(%rcx,%r13), %r15
	addq	$-1, %r15
	xorl	%r8d, %r8d
	movq	%rbx, %rbp
	.p2align	4, 0x90
.LBB59_28:
	movq	%r9, %rax
	mulq	(%rbp)
	movq	%rdx, %r10
	movq	%rax, %rcx
	movq	%r9, %rax
	mulq	8(%rbp)
	movq	%rdx, %r11
	movq	%rax, %rbx
	movq	%r9, %rax
	mulq	16(%rbp)
	movq	%rdx, %r12
	movq	%rax, %rdi
	movq	%r9, %rax
	mulq	24(%rbp)
	addq	%r8, %rcx
	adcq	%r10, %rbx
	movq	%rcx, (%rbp)
	movq	%rbx, 8(%rbp)
	adcq	%r11, %rdi
	adcq	%r12, %rax
	movq	%rdx, %r8
	adcq	$0, %r8
	movq	%rdi, 16(%rbp)
	movq	%rax, 24(%rbp)
	leaq	32(%rbp), %rbp
	addq	$4, %r15
	jne	.LBB59_28
	movq	16(%rsp), %r10
	movq	8(%rsp), %rbx
	movq	%r8, %rdx
	testq	%r13, %r13
	je	.LBB59_24
.LBB59_22:
	shlq	$3, %r13
	xorl	%ecx, %ecx
	.p2align	4, 0x90
.LBB59_23:
	movq	%r9, %rax
	mulq	(%rbp,%rcx)
	addq	%r8, %rax
	adcq	$0, %rdx
	movq	%rax, (%rbp,%rcx)
	addq	$8, %rcx
	movq	%rdx, %r8
	cmpq	%rcx, %r13
	jne	.LBB59_23
.LBB59_24:
	testq	%rdx, %rdx
	je	.LBB59_31
	movq	(%r10), %rax
	cmpq	$64, %rax
	jae	.LBB59_26
	movq	%rdx, 8(%r10,%rax,8)
	addq	$1, (%r10)
.LBB59_31:
	subq	%r14, %rsi
	cmpq	%r14, %rsi
	jae	.LBB59_67
	movq	(%rsp), %rbp
	movq	24(%rsp), %r8
.LBB59_33:
	cmpq	%r8, %rsi
	jae	.LBB59_64
	movq	(%r10), %rax
	leaq	(%r10,%rax,8), %rcx
	addq	$8, %rcx
	cmpq	%rcx, %rbx
	je	.LBB59_62
	movq	(%rbp,%rsi,8), %r8
	leaq	-8(,%rax,8), %rcx
	movq	%rcx, %rax
	shrq	$3, %rax
	addq	$1, %rax
	movl	%eax, %r11d
	andl	$3, %r11d
	cmpq	$24, %rcx
	jae	.LBB59_43
	xorl	%ebp, %ebp
	movq	%rbp, %rdx
	testq	%r11, %r11
	jne	.LBB59_38
	jmp	.LBB59_40
.LBB59_10:
	movl	%edx, %ebp
	movl	$1, %r14d
	xorl	%r13d, %r13d
	leaq	32(%rsp), %r12
	.p2align	4, 0x90
.LBB59_11:
	testq	%r14, %rbp
	je	.LBB59_61
	cmpq	$13, %r13
	ja	.LBB59_65
	movq	%r13, %rax
	shlq	$4, %rax
	movq	(%rax,%rdi), %rcx
	movq	8(%rax,%rdi), %r8
	cmpq	$1, %r8
	jne	.LBB59_14
	movq	(%r10), %rax
	leaq	(%r10,%rax,8), %rdx
	addq	$8, %rdx
	cmpq	%rdx, %rbx
	je	.LBB59_60
	movq	%rbp, (%rsp)
	movq	(%rcx), %r8
	leaq	-8(,%rax,8), %rcx
	movq	%rcx, %rax
	shrq	$3, %rax
	addq	$1, %rax
	movl	%eax, %r11d
	andl	$3, %r11d
	cmpq	$24, %rcx
	jae	.LBB59_55
	xorl	%r15d, %r15d
	movq	%rbx, %rbp
	movq	%r15, %rdx
	testq	%r11, %r11
	jne	.LBB59_50
	jmp	.LBB59_52
	.p2align	4, 0x90
.LBB59_14:
	movq	%r10, %r15
	movq	(%r10), %rax
	movq	%r12, %rdi
	cmpq	%r8, %rax
	jae	.LBB59_58
	movq	%rbx, %rsi
	movq	%rax, %rdx
	jmp	.LBB59_59
.LBB59_58:
	movq	%rcx, %rsi
	movq	%r8, %rdx
	movq	%rbx, %rcx
	movq	%rax, %r8
.LBB59_59:
	callq	_ZN12lexical_core4atof9algorithm4math5large13karatsuba_mul17h5ea040f75d413ba9E
	movl	$520, %edx
	movq	%r15, %rdi
	movq	%r12, %rsi
	callq	*memcpy@GOTPCREL(%rip)
	movq	%r15, %r10
	leaq	anon.d40ce0d908814db1d08d1ec60e7ece38.35.llvm.8558968605755664438(%rip), %rdi
	jmp	.LBB59_60
.LBB59_55:
	movl	$1, %ecx
	subq	%rax, %rcx
	leaq	(%r11,%rcx), %r12
	addq	$-1, %r12
	xorl	%r15d, %r15d
	movq	%rbx, %rbp
	.p2align	4, 0x90
.LBB59_56:
	movq	%r8, %rax
	mulq	(%rbp)
	movq	%rdx, %r9
	movq	%rax, %rdi
	movq	%r8, %rax
	mulq	8(%rbp)
	movq	%rdx, %r10
	movq	%rax, %rcx
	movq	%r8, %rax
	mulq	16(%rbp)
	movq	%rdx, %rsi
	movq	%rax, %rbx
	movq	%r8, %rax
	mulq	24(%rbp)
	addq	%r15, %rdi
	adcq	%r9, %rcx
	movq	%rdi, (%rbp)
	movq	%rcx, 8(%rbp)
	adcq	%r10, %rbx
	adcq	%rsi, %rax
	movq	%rdx, %r15
	adcq	$0, %r15
	movq	%rbx, 16(%rbp)
	movq	%rax, 24(%rbp)
	leaq	32(%rbp), %rbp
	addq	$4, %r12
	jne	.LBB59_56
	movq	16(%rsp), %r10
	movq	8(%rsp), %rbx
	leaq	32(%rsp), %r12
	movq	%r15, %rdx
	testq	%r11, %r11
	je	.LBB59_52
.LBB59_50:
	shlq	$3, %r11
	xorl	%ecx, %ecx
	.p2align	4, 0x90
.LBB59_51:
	movq	%r8, %rax
	mulq	(%rbp,%rcx)
	addq	%r15, %rax
	adcq	$0, %rdx
	movq	%rax, (%rbp,%rcx)
	addq	$8, %rcx
	movq	%rdx, %r15
	cmpq	%rcx, %r11
	jne	.LBB59_51
.LBB59_52:
	testq	%rdx, %rdx
	leaq	anon.d40ce0d908814db1d08d1ec60e7ece38.35.llvm.8558968605755664438(%rip), %rbp
	movq	%rbp, %rdi
	movq	(%rsp), %rbp
	je	.LBB59_60
	movq	(%r10), %rax
	cmpq	$64, %rax
	jae	.LBB59_26
	movq	%rdx, 8(%r10,%rax,8)
	addq	$1, (%r10)
	.p2align	4, 0x90
.LBB59_60:
	xorq	%r14, %rbp
.LBB59_61:
	addq	$1, %r13
	addq	%r14, %r14
	testq	%rbp, %rbp
	jne	.LBB59_11
	jmp	.LBB59_62
.LBB59_43:
	movq	%r10, %r12
	movl	$1, %ecx
	subq	%rax, %rcx
	leaq	(%r11,%rcx), %r15
	addq	$-1, %r15
	xorl	%ebp, %ebp
	.p2align	4, 0x90
.LBB59_44:
	movq	%r8, %rax
	mulq	(%rbx)
	movq	%rdx, %r9
	movq	%rax, %rdi
	movq	%r8, %rax
	mulq	8(%rbx)
	movq	%rdx, %r10
	movq	%rax, %rcx
	movq	%r8, %rax
	mulq	16(%rbx)
	movq	%rdx, %r14
	movq	%rax, %rsi
	movq	%r8, %rax
	mulq	24(%rbx)
	addq	%rbp, %rdi
	adcq	%r9, %rcx
	movq	%rdi, (%rbx)
	movq	%rcx, 8(%rbx)
	adcq	%r10, %rsi
	adcq	%r14, %rax
	movq	%rdx, %rbp
	adcq	$0, %rbp
	movq	%rsi, 16(%rbx)
	movq	%rax, 24(%rbx)
	leaq	32(%rbx), %rbx
	addq	$4, %r15
	jne	.LBB59_44
	movq	%r12, %r10
	movq	%rbp, %rdx
	testq	%r11, %r11
	je	.LBB59_40
.LBB59_38:
	xorl	%ecx, %ecx
	.p2align	4, 0x90
.LBB59_39:
	movq	%r8, %rax
	mulq	(%rbx,%rcx,8)
	addq	%rbp, %rax
	adcq	$0, %rdx
	movq	%rax, (%rbx,%rcx,8)
	addq	$1, %rcx
	movq	%rdx, %rbp
	cmpq	%rcx, %r11
	jne	.LBB59_39
.LBB59_40:
	testq	%rdx, %rdx
	je	.LBB59_62
	movq	(%r10), %rax
	cmpq	$64, %rax
	jae	.LBB59_26
	movq	%rdx, 8(%r10,%rax,8)
	addq	$1, (%r10)
.LBB59_62:
	addq	$552, %rsp
	.cfi_def_cfa_offset 56
	popq	%rbx
	.cfi_def_cfa_offset 48
	popq	%r12
	.cfi_def_cfa_offset 40
	popq	%r13
	.cfi_def_cfa_offset 32
	popq	%r14
	.cfi_def_cfa_offset 24
	popq	%r15
	.cfi_def_cfa_offset 16
	popq	%rbp
	.cfi_def_cfa_offset 8
	retq
.LBB59_65:
	.cfi_def_cfa_offset 608
	leaq	.Lanon.48e8eea5eef5500cf109e817756c3727.11(%rip), %rdi
	movl	$14, %edx
	movq	%r13, %rsi
	callq	_ZN4core9panicking18panic_bounds_check17h620ba7e4e283471aE
	ud2
.LBB59_26:
	leaq	.Lanon.3db3eae2adbf5b8be24024acfd48bafc.2(%rip), %rdi
	leaq	.Lanon.3db3eae2adbf5b8be24024acfd48bafc.1(%rip), %rdx
	movl	$46, %esi
	callq	_ZN3std9panicking11begin_panic17hc53bd1a638d5bd8cE
	ud2
.LBB59_66:
	leaq	.Lanon.95ea3f7a23504fe23be8a45e85d4cf39.14(%rip), %rdi
	leaq	anon.c3ad055338a366c33e23e2dd169a30a8.1.llvm.6003641991083973417(%rip), %rdx
	movl	$40, %esi
	callq	_ZN3std9panicking11begin_panic17hc53bd1a638d5bd8cE
	ud2
.LBB59_63:
	leaq	.Lanon.48e8eea5eef5500cf109e817756c3727.8(%rip), %rdi
	movl	$14, %edx
	callq	_ZN4core9panicking18panic_bounds_check17h620ba7e4e283471aE
	ud2
.LBB59_64:
	leaq	.Lanon.48e8eea5eef5500cf109e817756c3727.10(%rip), %rdi
	movq	%r8, %rdx
	callq	_ZN4core9panicking18panic_bounds_check17h620ba7e4e283471aE
	ud2
.Lfunc_end59:
	.size	_ZN12lexical_core4atof9algorithm4math5small10imul_power17hab411dbeb8da1948E, .Lfunc_end59-_ZN12lexical_core4atof9algorithm4math5small10imul_power17hab411dbeb8da1948E
	.cfi_endproc

	.section	.rodata.cst16,"aM",@progbits,16
	.p2align	4
.LCPI60_0:
	.quad	1
	.quad	1
	.section	.text._ZN12lexical_core4atof9algorithm6bigint14parse_mantissa17he470de7e48e5a437E,"ax",@progbits
	.p2align	4, 0x90
	.type	_ZN12lexical_core4atof9algorithm6bigint14parse_mantissa17he470de7e48e5a437E,@function
_ZN12lexical_core4atof9algorithm6bigint14parse_mantissa17he470de7e48e5a437E:
.Lfunc_begin60:
	.cfi_startproc
	pushq	%rbp
	.cfi_def_cfa_offset 16
	pushq	%r15
	.cfi_def_cfa_offset 24
	pushq	%r14
	.cfi_def_cfa_offset 32
	pushq	%r13
	.cfi_def_cfa_offset 40
	pushq	%r12
	.cfi_def_cfa_offset 48
	pushq	%rbx
	.cfi_def_cfa_offset 56
	subq	$600, %rsp
	.cfi_def_cfa_offset 656
	.cfi_offset %rbx, -56
	.cfi_offset %r12, -48
	.cfi_offset %r13, -40
	.cfi_offset %r14, -32
	.cfi_offset %r15, -24
	.cfi_offset %rbp, -16
	movq	%rsi, %rax
	movq	8(%rsi), %r14
	movq	24(%rsi), %rsi
	movq	32(%rax), %r12
	leaq	(%rsi,%r14), %rcx
	subq	%r12, %rcx
	movq	$0, 80(%rsp)
	cmpq	$16384, %rcx
	jae	.LBB60_108
	movq	%rdx, %r13
	movq	(%rax), %r15
	movq	16(%rax), %rax
	leaq	(%rax,%rsi), %rdx
	xorl	%ecx, %ecx
	cmpq	$4, %rsi
	jb	.LBB60_8
	.p2align	4, 0x90
.LBB60_2:
	cmpb	$48, -1(%rdx,%rcx)
	jne	.LBB60_15
	cmpb	$48, -2(%rdx,%rcx)
	jne	.LBB60_4
	cmpb	$48, -3(%rdx,%rcx)
	jne	.LBB60_12
	cmpb	$48, -4(%rdx,%rcx)
	jne	.LBB60_14
	leaq	(%rdx,%rcx), %rbp
	addq	$-4, %rbp
	subq	%rax, %rbp
	addq	$-4, %rcx
	cmpq	$3, %rbp
	ja	.LBB60_2
	addq	%rcx, %rdx
	negq	%rcx
.LBB60_8:
	cmpq	%rax, %rdx
	je	.LBB60_16
	.p2align	4, 0x90
.LBB60_9:
	cmpb	$48, -1(%rdx)
	jne	.LBB60_16
	addq	$-1, %rdx
	addq	$1, %rcx
	cmpq	%rdx, %rax
	jne	.LBB60_9
	jmp	.LBB60_16
.LBB60_15:
	negq	%rcx
	subq	%rcx, %rsi
	cmpq	%r12, %rsi
	jae	.LBB60_17
	jmp	.LBB60_109
.LBB60_4:
	movl	$1, %edx
	jmp	.LBB60_5
.LBB60_12:
	movl	$2, %edx
	jmp	.LBB60_5
.LBB60_14:
	movl	$3, %edx
.LBB60_5:
	subq	%rcx, %rdx
	movq	%rdx, %rcx
.LBB60_16:
	subq	%rcx, %rsi
	cmpq	%r12, %rsi
	jb	.LBB60_109
.LBB60_17:
	movq	%rdi, 40(%rsp)
	addq	$-1, %r13
	addq	%r15, %r14
	addq	%rax, %r12
	addq	%rax, %rsi
	leaq	88(%rsp), %r11
	xorl	%ebx, %ebx
	movabsq	$1000000000000000000, %r10
	leaq	.Lanon.a8e4ed8328978708c0e7fc28f693712c.3(%rip), %rbp
	xorl	%r8d, %r8d
	xorl	%edi, %edi
	xorl	%eax, %eax
	movq	%rsi, 56(%rsp)
	movq	%r14, 48(%rsp)
	movq	%r13, 64(%rsp)
	.p2align	4, 0x90
.LBB60_18:
	movq	%r15, %rcx
	movq	%r12, %rdx
	cmpb	$1, %bl
	je	.LBB60_22
	cmpb	$2, %bl
	jne	.LBB60_20
	cmpq	%rsi, %rdx
	je	.LBB60_26
	leaq	1(%rdx), %r12
	movb	$2, %bl
	movq	%rcx, %r15
	movq	%rdx, %rcx
	movzbl	(%rcx), %edx
	cmpq	$18, %rax
	je	.LBB60_33
	jmp	.LBB60_56
	.p2align	4, 0x90
.LBB60_22:
	cmpq	%r14, %rcx
	je	.LBB60_23
	leaq	1(%rcx), %r15
	movb	$1, %bl
	movq	%rdx, %r12
	movzbl	(%rcx), %edx
	cmpq	$18, %rax
	jne	.LBB60_56
.LBB60_33:
	movq	80(%rsp), %r9
	testq	%r9, %r9
	je	.LBB60_47
	movq	%rdx, 72(%rsp)
	movq	%rdi, 8(%rsp)
	leaq	-8(,%r9,8), %rcx
	movq	%rcx, %rax
	shrq	$3, %rax
	addq	$1, %rax
	movl	%eax, %edi
	andl	$3, %edi
	cmpq	$24, %rcx
	jae	.LBB60_41
	xorl	%r13d, %r13d
	movq	%r11, %rbp
	movq	%r13, %rdx
	testq	%rdi, %rdi
	jne	.LBB60_37
	jmp	.LBB60_39
	.p2align	4, 0x90
.LBB60_20:
	cmpq	%r14, %rcx
	je	.LBB60_28
	leaq	1(%rcx), %r15
	xorl	%ebx, %ebx
	movq	%rdx, %r12
	movzbl	(%rcx), %edx
	cmpq	$18, %rax
	je	.LBB60_33
	jmp	.LBB60_56
.LBB60_41:
	movq	%rbx, 32(%rsp)
	movq	%r15, 16(%rsp)
	movq	%r12, 24(%rsp)
	movl	$1, %ecx
	subq	%rax, %rcx
	leaq	(%rdi,%rcx), %rsi
	addq	$-1, %rsi
	xorl	%r13d, %r13d
	movq	%r11, %rbp
	.p2align	4, 0x90
.LBB60_42:
	movq	%r10, %rax
	mulq	(%rbp)
	movq	%rdx, %r11
	movq	%rax, %rcx
	movq	%r10, %rax
	mulq	8(%rbp)
	movq	%rdx, %r14
	movq	%rax, %rbx
	movq	%r10, %rax
	mulq	16(%rbp)
	movq	%rdx, %r15
	movq	%rax, %r12
	movq	%r10, %rax
	mulq	24(%rbp)
	addq	%r13, %rcx
	adcq	%r11, %rbx
	movq	%rcx, (%rbp)
	movq	%rbx, 8(%rbp)
	adcq	%r14, %r12
	adcq	%r15, %rax
	movq	%rdx, %r13
	adcq	$0, %r13
	movq	%r12, 16(%rbp)
	movq	%rax, 24(%rbp)
	leaq	32(%rbp), %rbp
	addq	$4, %rsi
	jne	.LBB60_42
	movq	56(%rsp), %rsi
	movq	48(%rsp), %r14
	leaq	88(%rsp), %r11
	movq	24(%rsp), %r12
	movq	16(%rsp), %r15
	movq	32(%rsp), %rbx
	movq	%r13, %rdx
	testq	%rdi, %rdi
	je	.LBB60_39
.LBB60_37:
	shlq	$3, %rdi
	xorl	%ecx, %ecx
	.p2align	4, 0x90
.LBB60_38:
	movq	%r10, %rax
	mulq	(%rbp,%rcx)
	addq	%r13, %rax
	adcq	$0, %rdx
	movq	%rax, (%rbp,%rcx)
	addq	$8, %rcx
	movq	%rdx, %r13
	cmpq	%rcx, %rdi
	jne	.LBB60_38
.LBB60_39:
	testq	%rdx, %rdx
	je	.LBB60_40
	cmpq	$64, %r9
	movq	64(%rsp), %r13
	movq	8(%rsp), %rdi
	leaq	.Lanon.a8e4ed8328978708c0e7fc28f693712c.3(%rip), %rbp
	jae	.LBB60_110
	movq	%rdx, 88(%rsp,%r9,8)
	movq	80(%rsp), %r9
	addq	$1, %r9
	movq	%r9, 80(%rsp)
	testq	%r9, %r9
	movq	72(%rsp), %rdx
	je	.LBB60_47
.LBB60_48:
	addq	%rdi, 88(%rsp)
	jae	.LBB60_55
	cmpq	$2, %r9
	jb	.LBB60_54
	movl	$1, %eax
	.p2align	4, 0x90
.LBB60_51:
	addq	$1, 88(%rsp,%rax,8)
	jae	.LBB60_55
	movq	80(%rsp), %r9
	addq	$1, %rax
	cmpq	%r9, %rax
	jb	.LBB60_51
	cmpq	$64, %r9
	jae	.LBB60_110
.LBB60_54:
	movq	$1, 88(%rsp,%r9,8)
	addq	$1, 80(%rsp)
	jmp	.LBB60_55
.LBB60_28:
	cmpq	%rsi, %rdx
	je	.LBB60_29
	leaq	1(%rdx), %r12
	movb	$2, %bl
	movq	%r14, %r15
	movq	%rdx, %rcx
	movzbl	(%rcx), %edx
	cmpq	$18, %rax
	je	.LBB60_33
	jmp	.LBB60_56
.LBB60_40:
	movq	64(%rsp), %r13
	movq	8(%rsp), %rdi
	leaq	.Lanon.a8e4ed8328978708c0e7fc28f693712c.3(%rip), %rbp
	testq	%r9, %r9
	movq	72(%rsp), %rdx
	jne	.LBB60_48
	.p2align	4, 0x90
.LBB60_47:
	movq	%rdi, 88(%rsp)
	movq	$1, 80(%rsp)
.LBB60_55:
	xorl	%edi, %edi
	xorl	%eax, %eax
.LBB60_56:
	leaq	(%rdi,%rdi,4), %rcx
	movzbl	(%rdx,%rbp), %edx
	leaq	(%rdx,%rcx,2), %rdi
	addq	$1, %r8
	addq	$1, %rax
	cmpq	%r13, %r8
	jne	.LBB60_18
	movq	%rbx, 32(%rsp)
	testq	%rax, %rax
	je	.LBB60_81
.LBB60_58:
	cmpq	$19, %rax
	ja	.LBB60_107
	movq	80(%rsp), %r13
	testq	%r13, %r13
	je	.LBB60_73
	movq	%rdi, 8(%rsp)
	leaq	anon.c3ad055338a366c33e23e2dd169a30a8.3.llvm.6003641991083973417(%rip), %rcx
	movq	(%rcx,%rax,8), %r8
	leaq	-8(,%r13,8), %rcx
	movq	%rcx, %rax
	shrq	$3, %rax
	addq	$1, %rax
	movl	%eax, %r9d
	andl	$3, %r9d
	cmpq	$24, %rcx
	jae	.LBB60_67
	xorl	%ebp, %ebp
	leaq	88(%rsp), %rdi
	movq	%rbp, %rdx
	testq	%r9, %r9
	jne	.LBB60_63
	jmp	.LBB60_65
.LBB60_67:
	movq	%r15, 16(%rsp)
	movq	%r12, 24(%rsp)
	movl	$1, %ecx
	subq	%rax, %rcx
	leaq	(%r9,%rcx), %rsi
	addq	$-1, %rsi
	xorl	%ebp, %ebp
	leaq	88(%rsp), %rdi
	.p2align	4, 0x90
.LBB60_68:
	movq	%r8, %rax
	mulq	(%rdi)
	movq	%rdx, %r10
	movq	%rax, %rcx
	movq	%r8, %rax
	mulq	8(%rdi)
	movq	%rdx, %r11
	movq	%rax, %rbx
	movq	%r8, %rax
	mulq	16(%rdi)
	movq	%rdx, %r14
	movq	%rax, %r15
	movq	%r8, %rax
	mulq	24(%rdi)
	addq	%rbp, %rcx
	adcq	%r10, %rbx
	movq	%rcx, (%rdi)
	movq	%rbx, 8(%rdi)
	adcq	%r11, %r15
	adcq	%r14, %rax
	movq	%rdx, %rbp
	adcq	$0, %rbp
	movq	%r15, 16(%rdi)
	movq	%rax, 24(%rdi)
	leaq	32(%rdi), %rdi
	addq	$4, %rsi
	jne	.LBB60_68
	movq	56(%rsp), %rsi
	movq	48(%rsp), %r14
	movq	24(%rsp), %r12
	movq	16(%rsp), %r15
	movq	%rbp, %rdx
	testq	%r9, %r9
	je	.LBB60_65
.LBB60_63:
	xorl	%ecx, %ecx
	.p2align	4, 0x90
.LBB60_64:
	movq	%r8, %rax
	mulq	(%rdi,%rcx,8)
	addq	%rbp, %rax
	adcq	$0, %rdx
	movq	%rax, (%rdi,%rcx,8)
	addq	$1, %rcx
	movq	%rdx, %rbp
	cmpq	%rcx, %r9
	jne	.LBB60_64
.LBB60_65:
	testq	%rdx, %rdx
	je	.LBB60_66
	cmpq	$64, %r13
	movq	8(%rsp), %rdi
	jae	.LBB60_110
	movq	%rdx, 88(%rsp,%r13,8)
	movq	80(%rsp), %r13
	addq	$1, %r13
	movq	%r13, 80(%rsp)
	testq	%r13, %r13
	je	.LBB60_73
.LBB60_74:
	addq	%rdi, 88(%rsp)
	jae	.LBB60_81
	cmpq	$2, %r13
	jb	.LBB60_80
	movl	$1, %eax
	.p2align	4, 0x90
.LBB60_77:
	addq	$1, 88(%rsp,%rax,8)
	jae	.LBB60_81
	movq	80(%rsp), %r13
	addq	$1, %rax
	cmpq	%r13, %rax
	jb	.LBB60_77
	cmpq	$64, %r13
	jae	.LBB60_110
.LBB60_80:
	movq	$1, 88(%rsp,%r13,8)
	addq	$1, 80(%rsp)
	movq	32(%rsp), %r13
	cmpb	$1, %r13b
	jne	.LBB60_82
	jmp	.LBB60_98
.LBB60_23:
	movb	$1, %bl
	movq	%r14, %r15
	movq	%rdx, %r12
	movq	%rbx, 32(%rsp)
	testq	%rax, %rax
	jne	.LBB60_58
	jmp	.LBB60_81
.LBB60_26:
	movb	$2, %bl
	movq	%rcx, %r15
	movq	%rsi, %r12
	movq	%rbx, 32(%rsp)
	testq	%rax, %rax
	jne	.LBB60_58
	jmp	.LBB60_81
.LBB60_66:
	movq	8(%rsp), %rdi
	testq	%r13, %r13
	jne	.LBB60_74
.LBB60_73:
	movq	%rdi, 88(%rsp)
	movq	$1, 80(%rsp)
.LBB60_81:
	movq	32(%rsp), %r13
	cmpb	$1, %r13b
	je	.LBB60_98
.LBB60_82:
	cmpb	$2, %r13b
	movq	40(%rsp), %rdi
	je	.LBB60_84
	cmpq	%r14, %r15
	jne	.LBB60_85
.LBB60_84:
	cmpq	%rsi, %r12
	je	.LBB60_99
.LBB60_85:
	movq	80(%rsp), %r11
	testq	%r11, %r11
	je	.LBB60_95
	leaq	-8(,%r11,8), %rcx
	movq	%rcx, %rax
	shrq	$3, %rax
	addq	$1, %rax
	movl	%eax, %r14d
	andl	$3, %r14d
	cmpq	$24, %rcx
	jae	.LBB60_96
	xorl	%ebp, %ebp
	leaq	88(%rsp), %r13
	movq	%rbp, %rdx
	testq	%r14, %r14
	jne	.LBB60_89
	jmp	.LBB60_91
.LBB60_98:
	cmpq	%r14, %r15
	movq	40(%rsp), %rdi
	jne	.LBB60_85
	jmp	.LBB60_99
.LBB60_96:
	movl	$1, %ecx
	subq	%rax, %rcx
	leaq	(%r14,%rcx), %r15
	addq	$-1, %r15
	xorl	%ebp, %ebp
	leaq	88(%rsp), %r13
	.p2align	4, 0x90
.LBB60_97:
	movl	$10, %eax
	mulq	(%r13)
	movq	%rdx, %r8
	movq	%rax, %rsi
	movl	$10, %eax
	mulq	8(%r13)
	movq	%rdx, %r9
	movq	%rax, %rcx
	movl	$10, %eax
	mulq	16(%r13)
	movq	%rdx, %r10
	movq	%rax, %rbx
	movl	$10, %eax
	mulq	24(%r13)
	addq	%rbp, %rsi
	adcq	%r8, %rcx
	movq	%rsi, (%r13)
	movq	%rcx, 8(%r13)
	adcq	%r9, %rbx
	adcq	%r10, %rax
	movq	%rdx, %rbp
	adcq	$0, %rbp
	movq	%rbx, 16(%r13)
	movq	%rax, 24(%r13)
	leaq	32(%r13), %r13
	addq	$4, %r15
	jne	.LBB60_97
	movq	%rbp, %rdx
	testq	%r14, %r14
	je	.LBB60_91
.LBB60_89:
	xorl	%ecx, %ecx
	.p2align	4, 0x90
.LBB60_90:
	movl	$10, %eax
	mulq	(%r13,%rcx,8)
	addq	%rbp, %rax
	adcq	$0, %rdx
	movq	%rax, (%r13,%rcx,8)
	addq	$1, %rcx
	movq	%rdx, %rbp
	cmpq	%rcx, %r14
	jne	.LBB60_90
.LBB60_91:
	testq	%rdx, %rdx
	je	.LBB60_94
	cmpq	$64, %r11
	jae	.LBB60_110
	movq	%rdx, 88(%rsp,%r11,8)
	movq	80(%rsp), %r11
	addq	$1, %r11
	movq	%r11, 80(%rsp)
.LBB60_94:
	testq	%r11, %r11
	je	.LBB60_95
	addq	$1, 88(%rsp)
	jae	.LBB60_99
	cmpq	$2, %r11
	jb	.LBB60_106
	movl	$1, %eax
	.p2align	4, 0x90
.LBB60_103:
	addq	$1, 88(%rsp,%rax,8)
	jae	.LBB60_99
	movq	80(%rsp), %r11
	addq	$1, %rax
	cmpq	%r11, %rax
	jb	.LBB60_103
	cmpq	$64, %r11
	jae	.LBB60_110
.LBB60_106:
	movq	$1, 88(%rsp,%r11,8)
	addq	$1, 80(%rsp)
	jmp	.LBB60_99
.LBB60_95:
	movaps	.LCPI60_0(%rip), %xmm0
	movaps	%xmm0, 80(%rsp)
.LBB60_99:
	leaq	80(%rsp), %rsi
	movl	$520, %edx
	callq	*memcpy@GOTPCREL(%rip)
	addq	$600, %rsp
	.cfi_def_cfa_offset 56
	popq	%rbx
	.cfi_def_cfa_offset 48
	popq	%r12
	.cfi_def_cfa_offset 40
	popq	%r13
	.cfi_def_cfa_offset 32
	popq	%r14
	.cfi_def_cfa_offset 24
	popq	%r15
	.cfi_def_cfa_offset 16
	popq	%rbp
	.cfi_def_cfa_offset 8
	retq
.LBB60_29:
	.cfi_def_cfa_offset 656
	movb	$2, %bl
	movq	%r14, %r15
	movq	%rsi, %r12
	movq	%rbx, 32(%rsp)
	testq	%rax, %rax
	jne	.LBB60_58
	jmp	.LBB60_81
.LBB60_110:
	leaq	.Lanon.3db3eae2adbf5b8be24024acfd48bafc.2(%rip), %rdi
	leaq	.Lanon.3db3eae2adbf5b8be24024acfd48bafc.1(%rip), %rdx
	movl	$46, %esi
	callq	_ZN3std9panicking11begin_panic17hc53bd1a638d5bd8cE
	ud2
.LBB60_108:
	leaq	anon.3db3eae2adbf5b8be24024acfd48bafc.6.llvm.18143362009588027268(%rip), %rdi
	leaq	anon.3db3eae2adbf5b8be24024acfd48bafc.5.llvm.18143362009588027268(%rip), %rdx
	movl	$44, %esi
	callq	_ZN3std9panicking11begin_panic17hc53bd1a638d5bd8cE
	ud2
.LBB60_109:
	movq	%r12, %rdi
	callq	_ZN4core5slice22slice_index_order_fail17h0e662b493ebc9fb3E
	ud2
.LBB60_107:
	leaq	.Lanon.3db3eae2adbf5b8be24024acfd48bafc.8(%rip), %rdi
	movl	$20, %edx
	movq	%rax, %rsi
	callq	_ZN4core9panicking18panic_bounds_check17h620ba7e4e283471aE
	ud2
.Lfunc_end60:
	.size	_ZN12lexical_core4atof9algorithm6bigint14parse_mantissa17he470de7e48e5a437E, .Lfunc_end60-_ZN12lexical_core4atof9algorithm6bigint14parse_mantissa17he470de7e48e5a437E
	.cfi_endproc

	.section	.rodata.cst16,"aM",@progbits,16
	.p2align	4
.LCPI61_0:
	.quad	8
	.quad	8
	.section	.text._ZN12lexical_core4atof9algorithm4math8SmallOps9imul_pow217h478ea8981f3411f2E,"ax",@progbits
	.p2align	4, 0x90
	.type	_ZN12lexical_core4atof9algorithm4math8SmallOps9imul_pow217h478ea8981f3411f2E,@function
_ZN12lexical_core4atof9algorithm4math8SmallOps9imul_pow217h478ea8981f3411f2E:
.Lfunc_begin61:
	.cfi_startproc
	pushq	%rbp
	.cfi_def_cfa_offset 16
	pushq	%r15
	.cfi_def_cfa_offset 24
	pushq	%r14
	.cfi_def_cfa_offset 32
	pushq	%r13
	.cfi_def_cfa_offset 40
	pushq	%r12
	.cfi_def_cfa_offset 48
	pushq	%rbx
	.cfi_def_cfa_offset 56
	pushq	%rax
	.cfi_def_cfa_offset 64
	.cfi_offset %rbx, -56
	.cfi_offset %r12, -48
	.cfi_offset %r13, -40
	.cfi_offset %r14, -32
	.cfi_offset %r15, -24
	.cfi_offset %rbp, -16
	movl	%esi, %r14d
	movq	%rdi, %rbx
	movl	%esi, %r15d
	movq	%r15, %r10
	andq	$63, %r10
	je	.LBB61_19
	movq	(%rbx), %rcx
	movl	%r14d, %r11d
	negl	%r11d
	andl	$63, %r11d
	testq	%rcx, %rcx
	je	.LBB61_2
	leaq	-8(,%rcx,8), %rsi
	shrq	$3, %rsi
	addq	$1, %rsi
	cmpq	$3, %rsi
	ja	.LBB61_10
	leaq	8(%rbx), %rsi
	xorl	%eax, %eax
	jmp	.LBB61_8
.LBB61_2:
	xorl	%eax, %eax
	movl	%r11d, %ecx
	shrq	%cl, %rax
	testq	%rax, %rax
	jne	.LBB61_4
	jmp	.LBB61_19
.LBB61_10:
	movq	%rsi, %r8
	andq	$-4, %r8
	movq	%r10, %xmm8
	movq	%r11, %xmm1
	leaq	-4(%r8), %rdi
	movq	%rdi, %rdx
	shrq	$2, %rdx
	addq	$1, %rdx
	movl	%edx, %r9d
	andl	$1, %r9d
	testq	%rdi, %rdi
	je	.LBB61_11
	movl	$1, %edi
	subq	%rdx, %rdi
	addq	%r9, %rdi
	addq	$-1, %rdi
	xorpd	%xmm4, %xmm4
	xorl	%ebp, %ebp
	.p2align	4, 0x90
.LBB61_13:
	movupd	8(%rbx,%rbp,8), %xmm5
	movupd	24(%rbx,%rbp,8), %xmm3
	movupd	40(%rbx,%rbp,8), %xmm6
	movupd	56(%rbx,%rbp,8), %xmm2
	shufpd	$1, %xmm5, %xmm4
	movapd	%xmm5, %xmm7
	shufpd	$1, %xmm3, %xmm7
	psllq	%xmm8, %xmm5
	movapd	%xmm3, %xmm0
	psllq	%xmm8, %xmm0
	psrlq	%xmm1, %xmm4
	psrlq	%xmm1, %xmm7
	por	%xmm5, %xmm4
	por	%xmm0, %xmm7
	movdqu	%xmm4, 8(%rbx,%rbp,8)
	movdqu	%xmm7, 24(%rbx,%rbp,8)
	shufpd	$1, %xmm6, %xmm3
	movapd	%xmm6, %xmm0
	shufpd	$1, %xmm2, %xmm0
	psllq	%xmm8, %xmm6
	movapd	%xmm2, %xmm4
	psllq	%xmm8, %xmm4
	psrlq	%xmm1, %xmm3
	por	%xmm6, %xmm3
	psrlq	%xmm1, %xmm0
	por	%xmm4, %xmm0
	movdqu	%xmm3, 40(%rbx,%rbp,8)
	movdqu	%xmm0, 56(%rbx,%rbp,8)
	addq	$8, %rbp
	movapd	%xmm2, %xmm4
	addq	$2, %rdi
	jne	.LBB61_13
	testq	%r9, %r9
	je	.LBB61_16
.LBB61_15:
	movupd	8(%rbx,%rbp,8), %xmm0
	movupd	24(%rbx,%rbp,8), %xmm3
	shufpd	$1, %xmm0, %xmm2
	movapd	%xmm0, %xmm4
	shufpd	$1, %xmm3, %xmm4
	psllq	%xmm8, %xmm0
	psrlq	%xmm1, %xmm2
	por	%xmm0, %xmm2
	movdqu	%xmm2, 8(%rbx,%rbp,8)
	movapd	%xmm3, %xmm2
	psllq	%xmm8, %xmm3
	psrlq	%xmm1, %xmm4
	por	%xmm3, %xmm4
	movdqu	%xmm4, 24(%rbx,%rbp,8)
.LBB61_16:
	pshufd	$78, %xmm2, %xmm0
	movq	%xmm0, %rax
	cmpq	%r8, %rsi
	je	.LBB61_3
	leaq	(%rbx,%r8,8), %rsi
	addq	$8, %rsi
.LBB61_8:
	leaq	(%rbx,%rcx,8), %rbp
	addq	$8, %rbp
	movq	%rax, %rdi
	.p2align	4, 0x90
.LBB61_9:
	movq	(%rsi), %rax
	movq	%rax, %rdx
	movl	%r10d, %ecx
	shlq	%cl, %rdx
	movl	%r11d, %ecx
	shrq	%cl, %rdi
	orq	%rdx, %rdi
	movq	%rdi, (%rsi)
	leaq	8(%rsi), %rsi
	movq	%rax, %rdi
	cmpq	%rsi, %rbp
	jne	.LBB61_9
.LBB61_3:
	movl	%r11d, %ecx
	shrq	%cl, %rax
	testq	%rax, %rax
	je	.LBB61_19
.LBB61_4:
	movq	(%rbx), %rcx
	cmpq	$64, %rcx
	jae	.LBB61_5
	movq	%rax, 8(%rbx,%rcx,8)
	addq	$1, (%rbx)
.LBB61_19:
	shrq	$6, %r15
	je	.LBB61_34
	movq	(%rbx), %r12
	testq	%r12, %r12
	je	.LBB61_34
	leaq	(%r12,%r15), %rax
	cmpq	$65, %rax
	jae	.LBB61_35
	leaq	8(%rbx), %r13
	leaq	(%rbx,%r15,8), %rdi
	addq	$8, %rdi
	leaq	(,%r12,8), %rdx
	movq	%r13, %rsi
	callq	*memmove@GOTPCREL(%rip)
	movq	$0, (%rbx)
	leaq	(,%r15,8), %rdx
	xorl	%ebp, %ebp
	xorl	%esi, %esi
	movq	%r13, %rdi
	callq	*memset@GOTPCREL(%rip)
	cmpl	$256, %r14d
	jb	.LBB61_32
	movl	%r15d, %eax
	andl	$-4, %eax
	leaq	-4(%rax), %rsi
	movq	%rsi, %rdx
	shrq	$2, %rdx
	addq	$1, %rdx
	movl	%edx, %ecx
	andl	$7, %ecx
	cmpq	$28, %rsi
	jae	.LBB61_25
	pxor	%xmm0, %xmm0
	pxor	%xmm1, %xmm1
	testq	%rcx, %rcx
	jne	.LBB61_28
	jmp	.LBB61_30
.LBB61_25:
	movl	$1, %esi
	subq	%rdx, %rsi
	leaq	(%rcx,%rsi), %rdx
	addq	$-1, %rdx
	pxor	%xmm0, %xmm0
	movdqa	.LCPI61_0(%rip), %xmm2
	pxor	%xmm1, %xmm1
	.p2align	4, 0x90
.LBB61_26:
	paddq	%xmm2, %xmm0
	paddq	%xmm2, %xmm1
	addq	$8, %rdx
	jne	.LBB61_26
	testq	%rcx, %rcx
	je	.LBB61_30
.LBB61_28:
	negq	%rcx
	pcmpeqd	%xmm2, %xmm2
	.p2align	4, 0x90
.LBB61_29:
	psubq	%xmm2, %xmm0
	psubq	%xmm2, %xmm1
	addq	$1, %rcx
	jne	.LBB61_29
.LBB61_30:
	paddq	%xmm1, %xmm0
	pshufd	$78, %xmm0, %xmm1
	paddq	%xmm0, %xmm1
	movq	%xmm1, %rbp
	cmpq	%rax, %r15
	je	.LBB61_33
	subq	%rax, %r15
.LBB61_32:
	addq	%r15, %rbp
.LBB61_33:
	addq	%r12, %rbp
	movq	%rbp, (%rbx)
.LBB61_34:
	addq	$8, %rsp
	.cfi_def_cfa_offset 56
	popq	%rbx
	.cfi_def_cfa_offset 48
	popq	%r12
	.cfi_def_cfa_offset 40
	popq	%r13
	.cfi_def_cfa_offset 32
	popq	%r14
	.cfi_def_cfa_offset 24
	popq	%r15
	.cfi_def_cfa_offset 16
	popq	%rbp
	.cfi_def_cfa_offset 8
	retq
.LBB61_11:
	.cfi_def_cfa_offset 64
	xorpd	%xmm2, %xmm2
	xorl	%ebp, %ebp
	testq	%r9, %r9
	jne	.LBB61_15
	jmp	.LBB61_16
.LBB61_5:
	leaq	.Lanon.3db3eae2adbf5b8be24024acfd48bafc.2(%rip), %rdi
	leaq	.Lanon.3db3eae2adbf5b8be24024acfd48bafc.1(%rip), %rdx
	movl	$46, %esi
	callq	_ZN3std9panicking11begin_panic17hc53bd1a638d5bd8cE
	ud2
.LBB61_35:
	leaq	anon.8d7f88ddceff33a78431340ac890e2e8.2.llvm.11096832420347508346(%rip), %rdi
	leaq	anon.8d7f88ddceff33a78431340ac890e2e8.5.llvm.11096832420347508346(%rip), %rdx
	movl	$61, %esi
	callq	_ZN3std9panicking11begin_panic17hc53bd1a638d5bd8cE
	ud2
.Lfunc_end61:
	.size	_ZN12lexical_core4atof9algorithm4math8SmallOps9imul_pow217h478ea8981f3411f2E, .Lfunc_end61-_ZN12lexical_core4atof9algorithm4math8SmallOps9imul_pow217h478ea8981f3411f2E
	.cfi_endproc

	.section	.text.u8toa_range,"ax",@progbits
	.globl	u8toa_range
	.p2align	4, 0x90
	.type	u8toa_range,@function
u8toa_range:
.Lfunc_begin62:
	.cfi_startproc
	pushq	%rbx
	.cfi_def_cfa_offset 16
	.cfi_offset %rbx, -16
	cmpq	%rdx, %rsi
	ja	.LBB62_5
	movq	%rsi, %rbx
	testq	%rsi, %rsi
	je	.LBB62_5
	testq	%rdx, %rdx
	je	.LBB62_5
	subq	%rbx, %rdx
	cmpq	$2, %rdx
	jbe	.LBB62_6
	movzbl	%dil, %edi
	movq	%rbx, %rsi
	callq	_ZN12lexical_core4itoa7forward17hdc472d9b162727c9E
	addq	%rbx, %rax
	popq	%rbx
	.cfi_def_cfa_offset 8
	retq
.LBB62_5:
	.cfi_def_cfa_offset 16
	leaq	.Lanon.a8e4ed8328978708c0e7fc28f693712c.2(%rip), %rdi
	leaq	.Lanon.4edb37075cecff49e9140a01b6f0446c.6(%rip), %rdx
	movl	$70, %esi
	callq	_ZN3std9panicking11begin_panic17hc53bd1a638d5bd8cE
	ud2
.LBB62_6:
	leaq	.Lanon.4edb37075cecff49e9140a01b6f0446c.14(%rip), %rdi
	leaq	.Lanon.4edb37075cecff49e9140a01b6f0446c.13(%rip), %rdx
	movl	$44, %esi
	callq	_ZN3std9panicking11begin_panic17hc53bd1a638d5bd8cE
	ud2
.Lfunc_end62:
	.size	u8toa_range, .Lfunc_end62-u8toa_range
	.cfi_endproc

	.section	.text._ZN12lexical_core4itoa7forward17hdc472d9b162727c9E,"ax",@progbits
	.p2align	4, 0x90
	.type	_ZN12lexical_core4itoa7forward17hdc472d9b162727c9E,@function
_ZN12lexical_core4itoa7forward17hdc472d9b162727c9E:
.Lfunc_begin63:
	.cfi_startproc
	pushq	%r15
	.cfi_def_cfa_offset 16
	pushq	%r14
	.cfi_def_cfa_offset 24
	pushq	%r12
	.cfi_def_cfa_offset 32
	pushq	%rbx
	.cfi_def_cfa_offset 40
	subq	$72, %rsp
	.cfi_def_cfa_offset 112
	.cfi_offset %rbx, -40
	.cfi_offset %r12, -32
	.cfi_offset %r14, -24
	.cfi_offset %r15, -16
	testl	%edi, %edi
	je	.LBB63_1
	leaq	72(%rsp), %r14
	cmpl	$10000, %edi
	jae	.LBB63_8
	movl	%edi, %r12d
	cmpl	$100, %r12d
	jae	.LBB63_16
.LBB63_7:
	movl	%r12d, %edi
	cmpl	$10, %edi
	jae	.LBB63_25
.LBB63_23:
	leaq	8(%rsp), %rax
	cmpq	%r14, %rax
	je	.LBB63_37
	movl	%edi, %eax
	leaq	.Lanon.4edb37075cecff49e9140a01b6f0446c.8(%rip), %rcx
	movb	(%rax,%rcx), %al
	movb	%al, -1(%r14)
	addq	$-1, %r14
	jmp	.LBB63_29
.LBB63_1:
	testq	%rdx, %rdx
	je	.LBB63_36
	movb	$48, (%rsi)
	movl	$1, %ebx
	jmp	.LBB63_35
.LBB63_8:
	movq	$-64, %r8
	movl	$3518437209, %r10d
	leaq	.Lanon.32b3edf3a52fcde89cc073c0c773f7a5.591(%rip), %r11
	leaq	8(%rsp), %r9
	.p2align	4, 0x90
.LBB63_9:
	movl	%edi, %r12d
	imulq	%r10, %r12
	shrq	$45, %r12
	imull	$10000, %r12d, %ecx
	movl	%edi, %eax
	subl	%ecx, %eax
	imulq	$1374389535, %rax, %rcx
	shrq	$37, %rcx
	imull	$100, %ecx, %ebx
	subl	%ebx, %eax
	leaq	(%rax,%rax), %r15
	addq	$1, %r15
	cmpq	$199, %r15
	ja	.LBB63_31
	testq	%r8, %r8
	je	.LBB63_37
	movzbl	(%r15,%r11), %ebx
	leaq	-1(%r14), %r15
	movb	%bl, -1(%r14)
	cmpq	%r15, %r9
	je	.LBB63_37
	addq	%rcx, %rcx
	addq	%rax, %rax
	movzbl	(%rax,%r11), %eax
	movb	%al, -2(%r14)
	movq	%rcx, %rax
	orq	$1, %rax
	cmpq	$199, %rax
	ja	.LBB63_32
	leaq	-2(%r14), %rbx
	cmpq	%rbx, %r9
	je	.LBB63_37
	movzbl	(%rax,%r11), %eax
	leaq	-3(%r14), %rbx
	movb	%al, -3(%r14)
	cmpq	%rbx, %r9
	je	.LBB63_37
	movzbl	(%rcx,%r11), %eax
	movb	%al, -4(%r14)
	addq	$-4, %r14
	addq	$4, %r8
	cmpl	$100000000, %edi
	movl	%r12d, %edi
	jae	.LBB63_9
	subq	%r8, %r9
	movq	%r9, %r14
	cmpl	$100, %r12d
	jb	.LBB63_7
.LBB63_16:
	leaq	8(%rsp), %r8
	leaq	.Lanon.32b3edf3a52fcde89cc073c0c773f7a5.591(%rip), %r9
	.p2align	4, 0x90
.LBB63_17:
	movl	%r12d, %eax
	imulq	$1374389535, %rax, %rdi
	shrq	$37, %rdi
	imull	$100, %edi, %eax
	movl	%r12d, %ebx
	subl	%eax, %ebx
	leaq	(%rbx,%rbx), %rax
	addq	$1, %rax
	cmpq	$199, %rax
	ja	.LBB63_32
	movq	%r14, %rcx
	cmpq	%r14, %r8
	je	.LBB63_37
	movzbl	(%rax,%r9), %eax
	leaq	-1(%rcx), %r14
	movb	%al, -1(%rcx)
	cmpq	%r14, %r8
	je	.LBB63_37
	addq	%rbx, %rbx
	movzbl	(%rbx,%r9), %eax
	movb	%al, -2(%rcx)
	addq	$-1, %r14
	cmpl	$10000, %r12d
	movl	%edi, %r12d
	jae	.LBB63_17
	addq	$-2, %rcx
	movq	%rcx, %r14
	cmpl	$10, %edi
	jb	.LBB63_23
.LBB63_25:
	addl	%edi, %edi
	leaq	1(%rdi), %rax
	cmpq	$199, %rax
	ja	.LBB63_32
	leaq	8(%rsp), %r8
	cmpq	%r14, %r8
	je	.LBB63_37
	leaq	.Lanon.32b3edf3a52fcde89cc073c0c773f7a5.591(%rip), %rbx
	movb	(%rax,%rbx), %al
	leaq	-1(%r14), %rcx
	movb	%al, -1(%r14)
	cmpq	%rcx, %r8
	je	.LBB63_37
	movb	(%rdi,%rbx), %al
	movb	%al, -2(%r14)
	addq	$-2, %r14
.LBB63_29:
	xorl	%edi, %edi
	leaq	8(%rsp), %rax
	subq	%rax, %r14
	cmovneq	%r14, %rdi
	cmpq	$65, %rdi
	jae	.LBB63_30
	movl	$64, %ebx
	subq	%rdi, %rbx
	cmpq	%rdx, %rbx
	ja	.LBB63_38
	leaq	(%rsp,%rdi), %rax
	addq	$8, %rax
	movq	%rsi, %rdi
	movq	%rax, %rsi
	movq	%rbx, %rdx
	callq	*memcpy@GOTPCREL(%rip)
.LBB63_35:
	movq	%rbx, %rax
	addq	$72, %rsp
	.cfi_def_cfa_offset 40
	popq	%rbx
	.cfi_def_cfa_offset 32
	popq	%r12
	.cfi_def_cfa_offset 24
	popq	%r14
	.cfi_def_cfa_offset 16
	popq	%r15
	.cfi_def_cfa_offset 8
	retq
.LBB63_37:
	.cfi_def_cfa_offset 112
	leaq	.Lanon.32b3edf3a52fcde89cc073c0c773f7a5.161(%rip), %rdi
	callq	_ZN4core9panicking5panic17h6f50c0de2dcd7974E
	ud2
.LBB63_32:
	leaq	.Lanon.4edb37075cecff49e9140a01b6f0446c.9(%rip), %rdi
	movl	$200, %edx
	movq	%rax, %rsi
	callq	_ZN4core9panicking18panic_bounds_check17h620ba7e4e283471aE
	ud2
.LBB63_31:
	leaq	.Lanon.4edb37075cecff49e9140a01b6f0446c.9(%rip), %rdi
	movl	$200, %edx
	movq	%r15, %rsi
	callq	_ZN4core9panicking18panic_bounds_check17h620ba7e4e283471aE
	ud2
.LBB63_30:
	movl	$64, %esi
	callq	_ZN4core5slice22slice_index_order_fail17h0e662b493ebc9fb3E
	ud2
.LBB63_38:
	movq	%rbx, %rdi
	movq	%rdx, %rsi
	callq	_ZN4core5slice20slice_index_len_fail17haa6628c105c1e693E
	ud2
.LBB63_36:
	leaq	.Lanon.4edb37075cecff49e9140a01b6f0446c.10(%rip), %rdi
	xorl	%esi, %esi
	xorl	%edx, %edx
	callq	_ZN4core9panicking18panic_bounds_check17h620ba7e4e283471aE
	ud2
.Lfunc_end63:
	.size	_ZN12lexical_core4itoa7forward17hdc472d9b162727c9E, .Lfunc_end63-_ZN12lexical_core4itoa7forward17hdc472d9b162727c9E
	.cfi_endproc

	.section	.text.u16toa_range,"ax",@progbits
	.globl	u16toa_range
	.p2align	4, 0x90
	.type	u16toa_range,@function
u16toa_range:
.Lfunc_begin64:
	.cfi_startproc
	pushq	%rbx
	.cfi_def_cfa_offset 16
	.cfi_offset %rbx, -16
	cmpq	%rdx, %rsi
	ja	.LBB64_5
	movq	%rsi, %rbx
	testq	%rsi, %rsi
	je	.LBB64_5
	testq	%rdx, %rdx
	je	.LBB64_5
	subq	%rbx, %rdx
	cmpq	$4, %rdx
	jbe	.LBB64_6
	movzwl	%di, %edi
	movq	%rbx, %rsi
	callq	_ZN12lexical_core4itoa7forward17hdc472d9b162727c9E
	addq	%rbx, %rax
	popq	%rbx
	.cfi_def_cfa_offset 8
	retq
.LBB64_5:
	.cfi_def_cfa_offset 16
	leaq	.Lanon.a8e4ed8328978708c0e7fc28f693712c.2(%rip), %rdi
	leaq	.Lanon.4edb37075cecff49e9140a01b6f0446c.6(%rip), %rdx
	movl	$70, %esi
	callq	_ZN3std9panicking11begin_panic17hc53bd1a638d5bd8cE
	ud2
.LBB64_6:
	leaq	.Lanon.4edb37075cecff49e9140a01b6f0446c.16(%rip), %rdi
	leaq	.Lanon.4edb37075cecff49e9140a01b6f0446c.15(%rip), %rdx
	movl	$45, %esi
	callq	_ZN3std9panicking11begin_panic17hc53bd1a638d5bd8cE
	ud2
.Lfunc_end64:
	.size	u16toa_range, .Lfunc_end64-u16toa_range
	.cfi_endproc

	.section	.text.u32toa_range,"ax",@progbits
	.globl	u32toa_range
	.p2align	4, 0x90
	.type	u32toa_range,@function
u32toa_range:
.Lfunc_begin65:
	.cfi_startproc
	pushq	%rbx
	.cfi_def_cfa_offset 16
	.cfi_offset %rbx, -16
	cmpq	%rdx, %rsi
	ja	.LBB65_5
	movq	%rsi, %rbx
	testq	%rsi, %rsi
	je	.LBB65_5
	testq	%rdx, %rdx
	je	.LBB65_5
	subq	%rbx, %rdx
	cmpq	$9, %rdx
	jbe	.LBB65_6
	movq	%rbx, %rsi
	callq	_ZN12lexical_core4itoa7forward17hdc472d9b162727c9E
	addq	%rbx, %rax
	popq	%rbx
	.cfi_def_cfa_offset 8
	retq
.LBB65_5:
	.cfi_def_cfa_offset 16
	leaq	.Lanon.a8e4ed8328978708c0e7fc28f693712c.2(%rip), %rdi
	leaq	.Lanon.4edb37075cecff49e9140a01b6f0446c.6(%rip), %rdx
	movl	$70, %esi
	callq	_ZN3std9panicking11begin_panic17hc53bd1a638d5bd8cE
	ud2
.LBB65_6:
	leaq	.Lanon.4edb37075cecff49e9140a01b6f0446c.18(%rip), %rdi
	leaq	.Lanon.4edb37075cecff49e9140a01b6f0446c.17(%rip), %rdx
	movl	$45, %esi
	callq	_ZN3std9panicking11begin_panic17hc53bd1a638d5bd8cE
	ud2
.Lfunc_end65:
	.size	u32toa_range, .Lfunc_end65-u32toa_range
	.cfi_endproc

	.section	.text.u64toa_range,"ax",@progbits
	.globl	u64toa_range
	.p2align	4, 0x90
	.type	u64toa_range,@function
u64toa_range:
.Lfunc_begin66:
	.cfi_startproc
	pushq	%rbx
	.cfi_def_cfa_offset 16
	.cfi_offset %rbx, -16
	cmpq	%rdx, %rsi
	ja	.LBB66_5
	movq	%rsi, %rbx
	testq	%rsi, %rsi
	je	.LBB66_5
	testq	%rdx, %rdx
	je	.LBB66_5
	subq	%rbx, %rdx
	cmpq	$19, %rdx
	jbe	.LBB66_6
	movq	%rbx, %rsi
	callq	_ZN12lexical_core4itoa7forward17h5211fd39e6b646b8E
	addq	%rbx, %rax
	popq	%rbx
	.cfi_def_cfa_offset 8
	retq
.LBB66_5:
	.cfi_def_cfa_offset 16
	leaq	.Lanon.a8e4ed8328978708c0e7fc28f693712c.2(%rip), %rdi
	leaq	.Lanon.4edb37075cecff49e9140a01b6f0446c.6(%rip), %rdx
	movl	$70, %esi
	callq	_ZN3std9panicking11begin_panic17hc53bd1a638d5bd8cE
	ud2
.LBB66_6:
	leaq	.Lanon.4edb37075cecff49e9140a01b6f0446c.20(%rip), %rdi
	leaq	.Lanon.4edb37075cecff49e9140a01b6f0446c.19(%rip), %rdx
	movl	$45, %esi
	callq	_ZN3std9panicking11begin_panic17hc53bd1a638d5bd8cE
	ud2
.Lfunc_end66:
	.size	u64toa_range, .Lfunc_end66-u64toa_range
	.cfi_endproc

	.section	.text._ZN12lexical_core4itoa7forward17h5211fd39e6b646b8E,"ax",@progbits
	.p2align	4, 0x90
	.type	_ZN12lexical_core4itoa7forward17h5211fd39e6b646b8E,@function
_ZN12lexical_core4itoa7forward17h5211fd39e6b646b8E:
.Lfunc_begin67:
	.cfi_startproc
	pushq	%r15
	.cfi_def_cfa_offset 16
	pushq	%r14
	.cfi_def_cfa_offset 24
	pushq	%r13
	.cfi_def_cfa_offset 32
	pushq	%r12
	.cfi_def_cfa_offset 40
	pushq	%rbx
	.cfi_def_cfa_offset 48
	subq	$64, %rsp
	.cfi_def_cfa_offset 112
	.cfi_offset %rbx, -48
	.cfi_offset %r12, -40
	.cfi_offset %r13, -32
	.cfi_offset %r14, -24
	.cfi_offset %r15, -16
	movq	%rdx, %r8
	testq	%rdi, %rdi
	je	.LBB67_1
	movq	%rdi, %r9
	leaq	64(%rsp), %rbx
	cmpq	$10000, %rdi
	jae	.LBB67_8
	movq	%r9, %rdi
	cmpq	$100, %rdi
	jae	.LBB67_16
.LBB67_7:
	movq	%rdi, %rax
	cmpq	$10, %rax
	jae	.LBB67_25
.LBB67_23:
	movq	%rsp, %rcx
	cmpq	%rbx, %rcx
	je	.LBB67_38
	leaq	.Lanon.4edb37075cecff49e9140a01b6f0446c.8(%rip), %rcx
	movb	(%rax,%rcx), %al
	movb	%al, -1(%rbx)
	addq	$-1, %rbx
	jmp	.LBB67_30
.LBB67_1:
	testq	%r8, %r8
	je	.LBB67_37
	movb	$48, (%rsi)
	movl	$1, %ebx
	jmp	.LBB67_36
.LBB67_8:
	movq	$-64, %r12
	movabsq	$3777893186295716171, %r11
	movabsq	$2951479051793528259, %r14
	leaq	.Lanon.32b3edf3a52fcde89cc073c0c773f7a5.591(%rip), %r15
	movq	%rsp, %r10
	.p2align	4, 0x90
.LBB67_9:
	movq	%r9, %rax
	mulq	%r11
	movq	%rdx, %rdi
	shrq	$11, %rdi
	imulq	$10000, %rdi, %rax
	movq	%r9, %rcx
	subq	%rax, %rcx
	movq	%rcx, %rax
	shrq	$2, %rax
	mulq	%r14
	movq	%rdx, %rax
	shrq	$2, %rax
	imulq	$100, %rax, %rax
	subq	%rax, %rcx
	leaq	(%rcx,%rcx), %rax
	addq	$1, %rax
	cmpq	$199, %rax
	ja	.LBB67_33
	testq	%r12, %r12
	je	.LBB67_38
	movzbl	(%rax,%r15), %eax
	leaq	-1(%rbx), %r13
	movb	%al, -1(%rbx)
	cmpq	%r13, %r10
	je	.LBB67_38
	shrq	%rdx
	andq	$-2, %rdx
	addq	%rcx, %rcx
	movzbl	(%rcx,%r15), %eax
	movb	%al, -2(%rbx)
	movq	%rdx, %rax
	orq	$1, %rax
	cmpq	$199, %rax
	ja	.LBB67_33
	leaq	-2(%rbx), %rcx
	cmpq	%rcx, %r10
	je	.LBB67_38
	movzbl	(%rax,%r15), %eax
	leaq	-3(%rbx), %rcx
	movb	%al, -3(%rbx)
	cmpq	%rcx, %r10
	je	.LBB67_38
	movzbl	(%rdx,%r15), %eax
	movb	%al, -4(%rbx)
	addq	$-4, %rbx
	addq	$4, %r12
	cmpq	$100000000, %r9
	movq	%rdi, %r9
	jae	.LBB67_9
	subq	%r12, %r10
	movq	%r10, %rbx
	cmpq	$100, %rdi
	jb	.LBB67_7
.LBB67_16:
	movabsq	$2951479051793528259, %r9
	movq	%rsp, %r10
	leaq	.Lanon.32b3edf3a52fcde89cc073c0c773f7a5.591(%rip), %r11
	.p2align	4, 0x90
.LBB67_17:
	movq	%rdi, %rax
	shrq	$2, %rax
	mulq	%r9
	movq	%rdx, %rax
	shrq	$2, %rax
	imulq	$100, %rax, %rcx
	movq	%rdi, %rdx
	subq	%rcx, %rdx
	leaq	(%rdx,%rdx), %rcx
	addq	$1, %rcx
	cmpq	$199, %rcx
	ja	.LBB67_32
	movq	%rbx, %r14
	cmpq	%rbx, %r10
	je	.LBB67_38
	movzbl	(%rcx,%r11), %ecx
	leaq	-1(%r14), %rbx
	movb	%cl, -1(%r14)
	cmpq	%rbx, %r10
	je	.LBB67_38
	addq	%rdx, %rdx
	movzbl	(%rdx,%r11), %ecx
	movb	%cl, -2(%r14)
	addq	$-1, %rbx
	cmpq	$10000, %rdi
	movq	%rax, %rdi
	jae	.LBB67_17
	addq	$-2, %r14
	movq	%r14, %rbx
	cmpq	$10, %rax
	jb	.LBB67_23
.LBB67_25:
	leaq	(%rax,%rax), %rcx
	addq	$1, %rcx
	cmpq	$199, %rcx
	ja	.LBB67_32
	movq	%rsp, %rdx
	cmpq	%rbx, %rdx
	je	.LBB67_38
	addq	%rax, %rax
	leaq	.Lanon.32b3edf3a52fcde89cc073c0c773f7a5.591(%rip), %rdi
	movb	(%rcx,%rdi), %cl
	movb	%cl, -1(%rbx)
	cmpq	$199, %rax
	ja	.LBB67_33
	leaq	-1(%rbx), %rcx
	cmpq	%rcx, %rdx
	je	.LBB67_38
	movb	(%rax,%rdi), %al
	movb	%al, -2(%rbx)
	addq	$-2, %rbx
.LBB67_30:
	xorl	%edi, %edi
	movq	%rsp, %rax
	subq	%rax, %rbx
	cmovneq	%rbx, %rdi
	cmpq	$65, %rdi
	jae	.LBB67_31
	movl	$64, %ebx
	subq	%rdi, %rbx
	cmpq	%r8, %rbx
	ja	.LBB67_39
	leaq	(%rsp,%rdi), %rax
	movq	%rsi, %rdi
	movq	%rax, %rsi
	movq	%rbx, %rdx
	callq	*memcpy@GOTPCREL(%rip)
.LBB67_36:
	movq	%rbx, %rax
	addq	$64, %rsp
	.cfi_def_cfa_offset 48
	popq	%rbx
	.cfi_def_cfa_offset 40
	popq	%r12
	.cfi_def_cfa_offset 32
	popq	%r13
	.cfi_def_cfa_offset 24
	popq	%r14
	.cfi_def_cfa_offset 16
	popq	%r15
	.cfi_def_cfa_offset 8
	retq
.LBB67_38:
	.cfi_def_cfa_offset 112
	leaq	.Lanon.32b3edf3a52fcde89cc073c0c773f7a5.161(%rip), %rdi
	callq	_ZN4core9panicking5panic17h6f50c0de2dcd7974E
	ud2
.LBB67_33:
	leaq	.Lanon.4edb37075cecff49e9140a01b6f0446c.9(%rip), %rdi
	movl	$200, %edx
	movq	%rax, %rsi
	callq	_ZN4core9panicking18panic_bounds_check17h620ba7e4e283471aE
	ud2
.LBB67_32:
	leaq	.Lanon.4edb37075cecff49e9140a01b6f0446c.9(%rip), %rdi
	movl	$200, %edx
	movq	%rcx, %rsi
	callq	_ZN4core9panicking18panic_bounds_check17h620ba7e4e283471aE
	ud2
.LBB67_31:
	movl	$64, %esi
	callq	_ZN4core5slice22slice_index_order_fail17h0e662b493ebc9fb3E
	ud2
.LBB67_39:
	movq	%rbx, %rdi
	movq	%r8, %rsi
	callq	_ZN4core5slice20slice_index_len_fail17haa6628c105c1e693E
	ud2
.LBB67_37:
	leaq	.Lanon.4edb37075cecff49e9140a01b6f0446c.10(%rip), %rdi
	xorl	%esi, %esi
	xorl	%edx, %edx
	callq	_ZN4core9panicking18panic_bounds_check17h620ba7e4e283471aE
	ud2
.Lfunc_end67:
	.size	_ZN12lexical_core4itoa7forward17h5211fd39e6b646b8E, .Lfunc_end67-_ZN12lexical_core4itoa7forward17h5211fd39e6b646b8E
	.cfi_endproc

	.section	.text.u128toa_range,"ax",@progbits
	.globl	u128toa_range
	.p2align	4, 0x90
	.type	u128toa_range,@function
u128toa_range:
.Lfunc_begin68:
	.cfi_startproc
	pushq	%rbx
	.cfi_def_cfa_offset 16
	.cfi_offset %rbx, -16
	cmpq	%rcx, %rdx
	ja	.LBB68_5
	movq	%rdx, %rbx
	testq	%rdx, %rdx
	je	.LBB68_5
	testq	%rcx, %rcx
	je	.LBB68_5
	subq	%rbx, %rcx
	cmpq	$38, %rcx
	jbe	.LBB68_6
	movq	%rbx, %rdx
	callq	_ZN12lexical_core4itoa7forward17h1e17c5698e120be2E
	addq	%rbx, %rax
	popq	%rbx
	.cfi_def_cfa_offset 8
	retq
.LBB68_5:
	.cfi_def_cfa_offset 16
	leaq	.Lanon.a8e4ed8328978708c0e7fc28f693712c.2(%rip), %rdi
	leaq	.Lanon.4edb37075cecff49e9140a01b6f0446c.6(%rip), %rdx
	movl	$70, %esi
	callq	_ZN3std9panicking11begin_panic17hc53bd1a638d5bd8cE
	ud2
.LBB68_6:
	leaq	.Lanon.4edb37075cecff49e9140a01b6f0446c.22(%rip), %rdi
	leaq	.Lanon.4edb37075cecff49e9140a01b6f0446c.21(%rip), %rdx
	movl	$46, %esi
	callq	_ZN3std9panicking11begin_panic17hc53bd1a638d5bd8cE
	ud2
.Lfunc_end68:
	.size	u128toa_range, .Lfunc_end68-u128toa_range
	.cfi_endproc

	.section	.text._ZN12lexical_core4itoa7forward17h1e17c5698e120be2E,"ax",@progbits
	.p2align	4, 0x90
	.type	_ZN12lexical_core4itoa7forward17h1e17c5698e120be2E,@function
_ZN12lexical_core4itoa7forward17h1e17c5698e120be2E:
.Lfunc_begin69:
	.cfi_startproc
	pushq	%rbp
	.cfi_def_cfa_offset 16
	pushq	%r15
	.cfi_def_cfa_offset 24
	pushq	%r14
	.cfi_def_cfa_offset 32
	pushq	%r13
	.cfi_def_cfa_offset 40
	pushq	%r12
	.cfi_def_cfa_offset 48
	pushq	%rbx
	.cfi_def_cfa_offset 56
	subq	$104, %rsp
	.cfi_def_cfa_offset 160
	.cfi_offset %rbx, -56
	.cfi_offset %r12, -48
	.cfi_offset %r13, -40
	.cfi_offset %r14, -32
	.cfi_offset %r15, -24
	.cfi_offset %rbp, -16
	movq	%rdx, %rbp
	movq	%rdi, %rax
	orq	%rsi, %rax
	je	.LBB69_1
	movq	%rsi, %r12
	movq	%rcx, 8(%rsp)
	leaq	104(%rsp), %r15
	cmpq	$10000, %rdi
	movq	%rsi, %rax
	sbbq	$0, %rax
	movq	%rbp, (%rsp)
	jae	.LBB69_8
	movq	%rdi, %rcx
	movq	%r12, %r13
	jmp	.LBB69_6
.LBB69_1:
	testq	%rcx, %rcx
	je	.LBB69_44
	movb	$48, (%rbp)
	movl	$1, %ebx
	jmp	.LBB69_43
.LBB69_8:
	movq	$-64, %rdx
	leaq	.Lanon.32b3edf3a52fcde89cc073c0c773f7a5.591(%rip), %rbx
	.p2align	4, 0x90
.LBB69_9:
	movq	%rdx, 24(%rsp)
	movl	$10000, %edx
	xorl	%ecx, %ecx
	movq	%rdi, %rbp
	movq	%r12, %rsi
	movq	__udivti3@GOTPCREL(%rip), %rax
	movq	%rax, %r14
	callq	*%rax
	movq	%r14, %r8
	movq	%rax, %rsi
	movq	%rdx, %r13
	movq	$-10000, %rcx
	mulq	%rcx
	movq	%rax, %r14
	movq	%rsi, 16(%rsp)
	subq	%rsi, %rdx
	imulq	$-10000, %r13, %rsi
	addq	%rdx, %rsi
	movq	%rbp, 32(%rsp)
	addq	%rbp, %r14
	adcq	%r12, %rsi
	movl	$100, %edx
	xorl	%ecx, %ecx
	movq	%r14, %rdi
	callq	*%r8
	imulq	$-100, %rax, %rsi
	addq	%r14, %rsi
	leaq	(%rsi,%rsi), %rcx
	addq	$1, %rcx
	cmpq	$199, %rcx
	ja	.LBB69_38
	movq	24(%rsp), %rdx
	testq	%rdx, %rdx
	je	.LBB69_45
	addq	%rsi, %rsi
	movzbl	(%rcx,%rbx), %ecx
	movb	%cl, -1(%r15)
	cmpq	$199, %rsi
	leaq	40(%rsp), %rbp
	ja	.LBB69_39
	leaq	-1(%r15), %rcx
	cmpq	%rcx, %rbp
	je	.LBB69_45
	addq	%rax, %rax
	movzbl	(%rsi,%rbx), %ecx
	movb	%cl, -2(%r15)
	movq	%rax, %rsi
	orq	$1, %rsi
	cmpq	$199, %rsi
	ja	.LBB69_39
	leaq	-2(%r15), %rcx
	cmpq	%rcx, %rbp
	je	.LBB69_45
	movzbl	(%rsi,%rbx), %ecx
	movb	%cl, -3(%r15)
	cmpq	$199, %rax
	ja	.LBB69_40
	leaq	-3(%r15), %rcx
	cmpq	%rcx, %rbp
	movq	32(%rsp), %rcx
	je	.LBB69_45
	movzbl	(%rax,%rbx), %eax
	movb	%al, -4(%r15)
	addq	$-4, %r15
	addq	$4, %rdx
	cmpq	$100000000, %rcx
	sbbq	$0, %r12
	movq	16(%rsp), %rcx
	movq	%rcx, %rdi
	movq	%r13, %r12
	jae	.LBB69_9
	subq	%rdx, %rbp
	movq	%rbp, %r15
	movq	(%rsp), %rbp
.LBB69_6:
	cmpq	$100, %rcx
	movq	%r13, %rax
	sbbq	$0, %rax
	movq	%rcx, %rbx
	jae	.LBB69_18
	movq	%rbx, %rax
	movq	%r13, %rdx
	cmpq	$10, %rax
	sbbq	$0, %rdx
	jae	.LBB69_31
.LBB69_26:
	cmpq	$36, %rax
	jae	.LBB69_27
	leaq	40(%rsp), %rcx
	cmpq	%r15, %rcx
	je	.LBB69_45
	leaq	.Lanon.4edb37075cecff49e9140a01b6f0446c.8(%rip), %rcx
	movb	(%rax,%rcx), %al
	movb	%al, -1(%r15)
	addq	$-1, %r15
	jmp	.LBB69_36
.LBB69_18:
	leaq	40(%rsp), %r12
	leaq	.Lanon.32b3edf3a52fcde89cc073c0c773f7a5.591(%rip), %rbp
	.p2align	4, 0x90
.LBB69_19:
	movq	%r15, %r14
	movl	$100, %edx
	xorl	%ecx, %ecx
	movq	%rbx, %rdi
	movq	%r13, %rsi
	callq	*__udivti3@GOTPCREL(%rip)
	imulq	$-100, %rax, %rsi
	addq	%rbx, %rsi
	leaq	(%rsi,%rsi), %rcx
	addq	$1, %rcx
	cmpq	$199, %rcx
	ja	.LBB69_38
	cmpq	%r14, %r12
	je	.LBB69_45
	addq	%rsi, %rsi
	movzbl	(%rcx,%rbp), %ecx
	movb	%cl, -1(%r14)
	cmpq	$199, %rsi
	ja	.LBB69_39
	leaq	-1(%r14), %r15
	cmpq	%r15, %r12
	je	.LBB69_45
	movzbl	(%rsi,%rbp), %ecx
	movb	%cl, -2(%r14)
	addq	$-1, %r15
	cmpq	$10000, %rbx
	sbbq	$0, %r13
	movq	%rax, %rbx
	movq	%rdx, %r13
	jae	.LBB69_19
	addq	$-2, %r14
	movq	%r14, %r15
	movq	(%rsp), %rbp
	cmpq	$10, %rax
	sbbq	$0, %rdx
	jb	.LBB69_26
.LBB69_31:
	leaq	(%rax,%rax), %rsi
	addq	$1, %rsi
	cmpq	$199, %rsi
	ja	.LBB69_39
	leaq	40(%rsp), %rcx
	cmpq	%r15, %rcx
	je	.LBB69_45
	addq	%rax, %rax
	leaq	.Lanon.32b3edf3a52fcde89cc073c0c773f7a5.591(%rip), %rdx
	movb	(%rsi,%rdx), %bl
	movb	%bl, -1(%r15)
	cmpq	$199, %rax
	ja	.LBB69_40
	leaq	-1(%r15), %rsi
	cmpq	%rsi, %rcx
	je	.LBB69_45
	movb	(%rax,%rdx), %al
	movb	%al, -2(%r15)
	addq	$-2, %r15
.LBB69_36:
	xorl	%edi, %edi
	leaq	40(%rsp), %rax
	subq	%rax, %r15
	cmovneq	%r15, %rdi
	cmpq	$65, %rdi
	jae	.LBB69_37
	movl	$64, %ebx
	subq	%rdi, %rbx
	movq	8(%rsp), %rsi
	cmpq	%rsi, %rbx
	ja	.LBB69_46
	leaq	(%rsp,%rdi), %rsi
	addq	$40, %rsi
	movq	%rbp, %rdi
	movq	%rbx, %rdx
	callq	*memcpy@GOTPCREL(%rip)
.LBB69_43:
	movq	%rbx, %rax
	addq	$104, %rsp
	.cfi_def_cfa_offset 56
	popq	%rbx
	.cfi_def_cfa_offset 48
	popq	%r12
	.cfi_def_cfa_offset 40
	popq	%r13
	.cfi_def_cfa_offset 32
	popq	%r14
	.cfi_def_cfa_offset 24
	popq	%r15
	.cfi_def_cfa_offset 16
	popq	%rbp
	.cfi_def_cfa_offset 8
	retq
.LBB69_45:
	.cfi_def_cfa_offset 160
	leaq	.Lanon.32b3edf3a52fcde89cc073c0c773f7a5.161(%rip), %rdi
	callq	_ZN4core9panicking5panic17h6f50c0de2dcd7974E
	ud2
.LBB69_39:
	leaq	.Lanon.4edb37075cecff49e9140a01b6f0446c.9(%rip), %rdi
	movl	$200, %edx
	callq	_ZN4core9panicking18panic_bounds_check17h620ba7e4e283471aE
	ud2
.LBB69_38:
	leaq	.Lanon.4edb37075cecff49e9140a01b6f0446c.9(%rip), %rdi
	movl	$200, %edx
	movq	%rcx, %rsi
	callq	_ZN4core9panicking18panic_bounds_check17h620ba7e4e283471aE
	ud2
.LBB69_40:
	leaq	.Lanon.4edb37075cecff49e9140a01b6f0446c.9(%rip), %rdi
	movl	$200, %edx
	movq	%rax, %rsi
	callq	_ZN4core9panicking18panic_bounds_check17h620ba7e4e283471aE
	ud2
.LBB69_37:
	movl	$64, %esi
	callq	_ZN4core5slice22slice_index_order_fail17h0e662b493ebc9fb3E
	ud2
.LBB69_46:
	movq	%rbx, %rdi
	callq	_ZN4core5slice20slice_index_len_fail17haa6628c105c1e693E
	ud2
.LBB69_44:
	leaq	.Lanon.4edb37075cecff49e9140a01b6f0446c.10(%rip), %rdi
	xorl	%esi, %esi
	xorl	%edx, %edx
	callq	_ZN4core9panicking18panic_bounds_check17h620ba7e4e283471aE
	ud2
.LBB69_27:
	leaq	.Lanon.4edb37075cecff49e9140a01b6f0446c.9(%rip), %rdi
	movl	$36, %edx
	movq	%rax, %rsi
	callq	_ZN4core9panicking18panic_bounds_check17h620ba7e4e283471aE
	ud2
.Lfunc_end69:
	.size	_ZN12lexical_core4itoa7forward17h1e17c5698e120be2E, .Lfunc_end69-_ZN12lexical_core4itoa7forward17h1e17c5698e120be2E
	.cfi_endproc

	.section	.text.usizetoa_range,"ax",@progbits
	.globl	usizetoa_range
	.p2align	4, 0x90
	.type	usizetoa_range,@function
usizetoa_range:
.Lfunc_begin70:
	.cfi_startproc
	pushq	%rbx
	.cfi_def_cfa_offset 16
	.cfi_offset %rbx, -16
	cmpq	%rdx, %rsi
	ja	.LBB70_5
	movq	%rsi, %rbx
	testq	%rsi, %rsi
	je	.LBB70_5
	testq	%rdx, %rdx
	je	.LBB70_5
	subq	%rbx, %rdx
	cmpq	$19, %rdx
	jbe	.LBB70_6
	movq	%rbx, %rsi
	callq	_ZN12lexical_core4itoa7forward17h5211fd39e6b646b8E
	addq	%rbx, %rax
	popq	%rbx
	.cfi_def_cfa_offset 8
	retq
.LBB70_5:
	.cfi_def_cfa_offset 16
	leaq	.Lanon.a8e4ed8328978708c0e7fc28f693712c.2(%rip), %rdi
	leaq	.Lanon.4edb37075cecff49e9140a01b6f0446c.6(%rip), %rdx
	movl	$70, %esi
	callq	_ZN3std9panicking11begin_panic17hc53bd1a638d5bd8cE
	ud2
.LBB70_6:
	leaq	.Lanon.4edb37075cecff49e9140a01b6f0446c.24(%rip), %rdi
	leaq	.Lanon.4edb37075cecff49e9140a01b6f0446c.23(%rip), %rdx
	movl	$47, %esi
	callq	_ZN3std9panicking11begin_panic17hc53bd1a638d5bd8cE
	ud2
.Lfunc_end70:
	.size	usizetoa_range, .Lfunc_end70-usizetoa_range
	.cfi_endproc

	.section	.text.i8toa_range,"ax",@progbits
	.globl	i8toa_range
	.p2align	4, 0x90
	.type	i8toa_range,@function
i8toa_range:
.Lfunc_begin71:
	.cfi_startproc
	pushq	%rbx
	.cfi_def_cfa_offset 16
	.cfi_offset %rbx, -16
	cmpq	%rdx, %rsi
	ja	.LBB71_8
	movq	%rsi, %rbx
	testq	%rsi, %rsi
	je	.LBB71_8
	testq	%rdx, %rdx
	je	.LBB71_8
	subq	%rbx, %rdx
	cmpq	$3, %rdx
	jbe	.LBB71_9
	movsbl	%dil, %eax
	testb	%dil, %dil
	js	.LBB71_6
	movl	%eax, %edi
	movq	%rbx, %rsi
	callq	_ZN12lexical_core4itoa7forward17hdc472d9b162727c9E
	addq	%rax, %rbx
	movq	%rbx, %rax
	popq	%rbx
	.cfi_def_cfa_offset 8
	retq
.LBB71_6:
	.cfi_def_cfa_offset 16
	negl	%eax
	movb	$45, (%rbx)
	leaq	1(%rbx), %rsi
	addq	$-1, %rdx
	movl	%eax, %edi
	callq	_ZN12lexical_core4itoa7forward17hdc472d9b162727c9E
	addq	$1, %rax
	addq	%rax, %rbx
	movq	%rbx, %rax
	popq	%rbx
	.cfi_def_cfa_offset 8
	retq
.LBB71_8:
	.cfi_def_cfa_offset 16
	leaq	.Lanon.a8e4ed8328978708c0e7fc28f693712c.2(%rip), %rdi
	leaq	.Lanon.4edb37075cecff49e9140a01b6f0446c.6(%rip), %rdx
	movl	$70, %esi
	callq	_ZN3std9panicking11begin_panic17hc53bd1a638d5bd8cE
	ud2
.LBB71_9:
	leaq	.Lanon.4edb37075cecff49e9140a01b6f0446c.26(%rip), %rdi
	leaq	.Lanon.4edb37075cecff49e9140a01b6f0446c.25(%rip), %rdx
	movl	$44, %esi
	callq	_ZN3std9panicking11begin_panic17hc53bd1a638d5bd8cE
	ud2
.Lfunc_end71:
	.size	i8toa_range, .Lfunc_end71-i8toa_range
	.cfi_endproc

	.section	.text.i16toa_range,"ax",@progbits
	.globl	i16toa_range
	.p2align	4, 0x90
	.type	i16toa_range,@function
i16toa_range:
.Lfunc_begin72:
	.cfi_startproc
	pushq	%rbx
	.cfi_def_cfa_offset 16
	.cfi_offset %rbx, -16
	cmpq	%rdx, %rsi
	ja	.LBB72_8
	movq	%rsi, %rbx
	testq	%rsi, %rsi
	je	.LBB72_8
	testq	%rdx, %rdx
	je	.LBB72_8
	subq	%rbx, %rdx
	cmpq	$5, %rdx
	jbe	.LBB72_9
	movswl	%di, %eax
	testw	%di, %di
	js	.LBB72_6
	movl	%eax, %edi
	movq	%rbx, %rsi
	callq	_ZN12lexical_core4itoa7forward17hdc472d9b162727c9E
	addq	%rax, %rbx
	movq	%rbx, %rax
	popq	%rbx
	.cfi_def_cfa_offset 8
	retq
.LBB72_6:
	.cfi_def_cfa_offset 16
	negl	%eax
	movb	$45, (%rbx)
	leaq	1(%rbx), %rsi
	addq	$-1, %rdx
	movl	%eax, %edi
	callq	_ZN12lexical_core4itoa7forward17hdc472d9b162727c9E
	addq	$1, %rax
	addq	%rax, %rbx
	movq	%rbx, %rax
	popq	%rbx
	.cfi_def_cfa_offset 8
	retq
.LBB72_8:
	.cfi_def_cfa_offset 16
	leaq	.Lanon.a8e4ed8328978708c0e7fc28f693712c.2(%rip), %rdi
	leaq	.Lanon.4edb37075cecff49e9140a01b6f0446c.6(%rip), %rdx
	movl	$70, %esi
	callq	_ZN3std9panicking11begin_panic17hc53bd1a638d5bd8cE
	ud2
.LBB72_9:
	leaq	.Lanon.4edb37075cecff49e9140a01b6f0446c.28(%rip), %rdi
	leaq	.Lanon.4edb37075cecff49e9140a01b6f0446c.27(%rip), %rdx
	movl	$45, %esi
	callq	_ZN3std9panicking11begin_panic17hc53bd1a638d5bd8cE
	ud2
.Lfunc_end72:
	.size	i16toa_range, .Lfunc_end72-i16toa_range
	.cfi_endproc

	.section	.text.i32toa_range,"ax",@progbits
	.globl	i32toa_range
	.p2align	4, 0x90
	.type	i32toa_range,@function
i32toa_range:
.Lfunc_begin73:
	.cfi_startproc
	pushq	%rbx
	.cfi_def_cfa_offset 16
	.cfi_offset %rbx, -16
	cmpq	%rdx, %rsi
	ja	.LBB73_8
	movq	%rsi, %rbx
	testq	%rsi, %rsi
	je	.LBB73_8
	testq	%rdx, %rdx
	je	.LBB73_8
	subq	%rbx, %rdx
	cmpq	$10, %rdx
	jbe	.LBB73_9
	testl	%edi, %edi
	js	.LBB73_6
	movq	%rbx, %rsi
	callq	_ZN12lexical_core4itoa7forward17hdc472d9b162727c9E
	addq	%rax, %rbx
	movq	%rbx, %rax
	popq	%rbx
	.cfi_def_cfa_offset 8
	retq
.LBB73_6:
	.cfi_def_cfa_offset 16
	negl	%edi
	movb	$45, (%rbx)
	leaq	1(%rbx), %rsi
	addq	$-1, %rdx
	callq	_ZN12lexical_core4itoa7forward17hdc472d9b162727c9E
	addq	$1, %rax
	addq	%rax, %rbx
	movq	%rbx, %rax
	popq	%rbx
	.cfi_def_cfa_offset 8
	retq
.LBB73_8:
	.cfi_def_cfa_offset 16
	leaq	.Lanon.a8e4ed8328978708c0e7fc28f693712c.2(%rip), %rdi
	leaq	.Lanon.4edb37075cecff49e9140a01b6f0446c.6(%rip), %rdx
	movl	$70, %esi
	callq	_ZN3std9panicking11begin_panic17hc53bd1a638d5bd8cE
	ud2
.LBB73_9:
	leaq	.Lanon.4edb37075cecff49e9140a01b6f0446c.30(%rip), %rdi
	leaq	.Lanon.4edb37075cecff49e9140a01b6f0446c.29(%rip), %rdx
	movl	$45, %esi
	callq	_ZN3std9panicking11begin_panic17hc53bd1a638d5bd8cE
	ud2
.Lfunc_end73:
	.size	i32toa_range, .Lfunc_end73-i32toa_range
	.cfi_endproc

	.section	.text.i64toa_range,"ax",@progbits
	.globl	i64toa_range
	.p2align	4, 0x90
	.type	i64toa_range,@function
i64toa_range:
.Lfunc_begin74:
	.cfi_startproc
	pushq	%rbx
	.cfi_def_cfa_offset 16
	.cfi_offset %rbx, -16
	cmpq	%rdx, %rsi
	ja	.LBB74_8
	movq	%rsi, %rbx
	testq	%rsi, %rsi
	je	.LBB74_8
	testq	%rdx, %rdx
	je	.LBB74_8
	subq	%rbx, %rdx
	cmpq	$19, %rdx
	jbe	.LBB74_9
	testq	%rdi, %rdi
	js	.LBB74_6
	movq	%rbx, %rsi
	callq	_ZN12lexical_core4itoa7forward17h5211fd39e6b646b8E
	addq	%rax, %rbx
	movq	%rbx, %rax
	popq	%rbx
	.cfi_def_cfa_offset 8
	retq
.LBB74_6:
	.cfi_def_cfa_offset 16
	negq	%rdi
	movb	$45, (%rbx)
	leaq	1(%rbx), %rsi
	addq	$-1, %rdx
	callq	_ZN12lexical_core4itoa7forward17h5211fd39e6b646b8E
	addq	$1, %rax
	addq	%rax, %rbx
	movq	%rbx, %rax
	popq	%rbx
	.cfi_def_cfa_offset 8
	retq
.LBB74_8:
	.cfi_def_cfa_offset 16
	leaq	.Lanon.a8e4ed8328978708c0e7fc28f693712c.2(%rip), %rdi
	leaq	.Lanon.4edb37075cecff49e9140a01b6f0446c.6(%rip), %rdx
	movl	$70, %esi
	callq	_ZN3std9panicking11begin_panic17hc53bd1a638d5bd8cE
	ud2
.LBB74_9:
	leaq	.Lanon.4edb37075cecff49e9140a01b6f0446c.32(%rip), %rdi
	leaq	.Lanon.4edb37075cecff49e9140a01b6f0446c.31(%rip), %rdx
	movl	$45, %esi
	callq	_ZN3std9panicking11begin_panic17hc53bd1a638d5bd8cE
	ud2
.Lfunc_end74:
	.size	i64toa_range, .Lfunc_end74-i64toa_range
	.cfi_endproc

	.section	.text.i128toa_range,"ax",@progbits
	.globl	i128toa_range
	.p2align	4, 0x90
	.type	i128toa_range,@function
i128toa_range:
.Lfunc_begin75:
	.cfi_startproc
	pushq	%rbx
	.cfi_def_cfa_offset 16
	.cfi_offset %rbx, -16
	cmpq	%rcx, %rdx
	ja	.LBB75_8
	movq	%rdx, %rbx
	testq	%rdx, %rdx
	je	.LBB75_8
	testq	%rcx, %rcx
	je	.LBB75_8
	subq	%rbx, %rcx
	cmpq	$39, %rcx
	jbe	.LBB75_9
	testq	%rsi, %rsi
	js	.LBB75_6
	movq	%rbx, %rdx
	callq	_ZN12lexical_core4itoa7forward17h1e17c5698e120be2E
	addq	%rax, %rbx
	movq	%rbx, %rax
	popq	%rbx
	.cfi_def_cfa_offset 8
	retq
.LBB75_6:
	.cfi_def_cfa_offset 16
	xorl	%eax, %eax
	negq	%rdi
	sbbq	%rsi, %rax
	movb	$45, (%rbx)
	leaq	1(%rbx), %rdx
	addq	$-1, %rcx
	movq	%rax, %rsi
	callq	_ZN12lexical_core4itoa7forward17h1e17c5698e120be2E
	addq	$1, %rax
	addq	%rax, %rbx
	movq	%rbx, %rax
	popq	%rbx
	.cfi_def_cfa_offset 8
	retq
.LBB75_8:
	.cfi_def_cfa_offset 16
	leaq	.Lanon.a8e4ed8328978708c0e7fc28f693712c.2(%rip), %rdi
	leaq	.Lanon.4edb37075cecff49e9140a01b6f0446c.6(%rip), %rdx
	movl	$70, %esi
	callq	_ZN3std9panicking11begin_panic17hc53bd1a638d5bd8cE
	ud2
.LBB75_9:
	leaq	.Lanon.4edb37075cecff49e9140a01b6f0446c.34(%rip), %rdi
	leaq	.Lanon.4edb37075cecff49e9140a01b6f0446c.33(%rip), %rdx
	movl	$46, %esi
	callq	_ZN3std9panicking11begin_panic17hc53bd1a638d5bd8cE
	ud2
.Lfunc_end75:
	.size	i128toa_range, .Lfunc_end75-i128toa_range
	.cfi_endproc

	.section	.text.isizetoa_range,"ax",@progbits
	.globl	isizetoa_range
	.p2align	4, 0x90
	.type	isizetoa_range,@function
isizetoa_range:
.Lfunc_begin76:
	.cfi_startproc
	pushq	%rbx
	.cfi_def_cfa_offset 16
	.cfi_offset %rbx, -16
	cmpq	%rdx, %rsi
	ja	.LBB76_8
	movq	%rsi, %rbx
	testq	%rsi, %rsi
	je	.LBB76_8
	testq	%rdx, %rdx
	je	.LBB76_8
	subq	%rbx, %rdx
	cmpq	$19, %rdx
	jbe	.LBB76_9
	testq	%rdi, %rdi
	js	.LBB76_6
	movq	%rbx, %rsi
	callq	_ZN12lexical_core4itoa7forward17h5211fd39e6b646b8E
	addq	%rax, %rbx
	movq	%rbx, %rax
	popq	%rbx
	.cfi_def_cfa_offset 8
	retq
.LBB76_6:
	.cfi_def_cfa_offset 16
	negq	%rdi
	movb	$45, (%rbx)
	leaq	1(%rbx), %rsi
	addq	$-1, %rdx
	callq	_ZN12lexical_core4itoa7forward17h5211fd39e6b646b8E
	addq	$1, %rax
	addq	%rax, %rbx
	movq	%rbx, %rax
	popq	%rbx
	.cfi_def_cfa_offset 8
	retq
.LBB76_8:
	.cfi_def_cfa_offset 16
	leaq	.Lanon.a8e4ed8328978708c0e7fc28f693712c.2(%rip), %rdi
	leaq	.Lanon.4edb37075cecff49e9140a01b6f0446c.6(%rip), %rdx
	movl	$70, %esi
	callq	_ZN3std9panicking11begin_panic17hc53bd1a638d5bd8cE
	ud2
.LBB76_9:
	leaq	.Lanon.4edb37075cecff49e9140a01b6f0446c.36(%rip), %rdi
	leaq	.Lanon.4edb37075cecff49e9140a01b6f0446c.35(%rip), %rdx
	movl	$47, %esi
	callq	_ZN3std9panicking11begin_panic17hc53bd1a638d5bd8cE
	ud2
.Lfunc_end76:
	.size	isizetoa_range, .Lfunc_end76-isizetoa_range
	.cfi_endproc

	.section	.rodata.cst8,"aM",@progbits,8
	.p2align	3
.LCPI77_0:
	.quad	9218868437227405312
	.section	.text._ZN12lexical_core4atof9algorithm7correct13pown_fallback17h2aaa9fa54fab7f0eE,"ax",@progbits
	.p2align	4, 0x90
	.type	_ZN12lexical_core4atof9algorithm7correct13pown_fallback17h2aaa9fa54fab7f0eE,@function
_ZN12lexical_core4atof9algorithm7correct13pown_fallback17h2aaa9fa54fab7f0eE:
.Lfunc_begin77:
	.cfi_startproc
	pushq	%rbp
	.cfi_def_cfa_offset 16
	pushq	%r15
	.cfi_def_cfa_offset 24
	pushq	%r14
	.cfi_def_cfa_offset 32
	pushq	%r13
	.cfi_def_cfa_offset 40
	pushq	%r12
	.cfi_def_cfa_offset 48
	pushq	%rbx
	.cfi_def_cfa_offset 56
	subq	$1064, %rsp
	.cfi_def_cfa_offset 1120
	.cfi_offset %rbx, -56
	.cfi_offset %r12, -48
	.cfi_offset %r13, -40
	.cfi_offset %r14, -32
	.cfi_offset %r15, -24
	.cfi_offset %rbp, -16
	movq	%rdx, %r14
	movq	%rsi, %r15
	movq	%rdi, %r12
	addl	$350, %r9d
	js	.LBB77_7
	movl	%ecx, %r13d
	movslq	%r9d, %rax
	imulq	$1717986919, %rax, %rcx
	movq	%rcx, %rdx
	shrq	$63, %rdx
	sarq	$34, %rcx
	leal	(%rcx,%rdx), %eax
	cmpl	$65, %eax
	ja	.LBB77_27
	movq	1120(%rsp), %rsi
	movq	40(%rsi), %rdi
	addl	%edx, %ecx
	addl	%ecx, %ecx
	leal	(%rcx,%rcx,4), %ecx
	subl	%ecx, %r9d
	xorl	%r11d, %r11d
	testq	%rdi, %rdi
	setne	%cl
	movslq	%r9d, %rsi
	cmpl	$10, %esi
	jae	.LBB77_128
	movslq	%eax, %r10
	movb	%cl, %r11b
	shll	$2, %r11d
	leaq	.Lanon.d40ce0d908814db1d08d1ec60e7ece38.13(%rip), %rcx
	movq	%r8, %rax
	mulq	(%rcx,%rsi,8)
	movq	%rdi, 8(%rsp)
	jno	.LBB77_9
	testq	%r8, %r8
	je	.LBB77_12
	je	.LBB77_14
	bsrq	%r8, %rcx
	xorq	$63, %rcx
	jmp	.LBB77_15
.LBB77_7:
	xorl	%edx, %edx
.LBB77_8:
	xorl	%ebp, %ebp
	xorl	%ecx, %ecx
	jmp	.LBB77_29
.LBB77_27:
	movabsq	$-9223372036854775808, %rbp
	movl	$2047, %edx
	testq	%rbp, %rbp
	jne	.LBB77_26
.LBB77_28:
	movl	$64, %ecx
	jmp	.LBB77_29
.LBB77_9:
	testq	%rax, %rax
	je	.LBB77_13
	je	.LBB77_16
	bsrq	%rax, %rdx
	xorq	$63, %rdx
	jmp	.LBB77_17
.LBB77_12:
	xorl	%ecx, %ecx
	jmp	.LBB77_15
.LBB77_13:
	xorl	%edx, %edx
	jmp	.LBB77_17
.LBB77_14:
	movl	$64, %ecx
.LBB77_15:
	shlq	%cl, %r8
	leaq	.Lanon.d40ce0d908814db1d08d1ec60e7ece38.9(%rip), %rax
	movq	(%rax,%rsi,8), %rdx
	leaq	.Lanon.d40ce0d908814db1d08d1ec60e7ece38.10(%rip), %r9
	movq	%r8, %rbx
	shrq	$32, %rbx
	movl	%r8d, %r8d
	movl	%edx, %eax
	shrq	$32, %rdx
	movq	%rax, %rbp
	imulq	%rbx, %rbp
	movq	%rdx, %rdi
	imulq	%r8, %rdi
	imulq	%r8, %rax
	imulq	%rbx, %rdx
	movl	%ebp, %r8d
	movl	%edi, %ebx
	addq	%r8, %rbx
	shrq	$32, %rax
	addq	%rbx, %rax
	subq	$-2147483648, %rax
	shrq	$32, %rbp
	addq	%rdx, %rbp
	shrq	$32, %rdi
	addq	%rbp, %rdi
	shrq	$32, %rax
	addq	%rdi, %rax
	movl	$64, %edx
	subl	%ecx, %edx
	addl	(%r9,%rsi,4), %edx
	addl	$4, %r11d
	jmp	.LBB77_18
.LBB77_16:
	movl	$64, %edx
.LBB77_17:
	movl	%edx, %ecx
	shlq	%cl, %rax
	negl	%edx
.LBB77_18:
	leaq	.Lanon.d40ce0d908814db1d08d1ec60e7ece38.11(%rip), %rcx
	movq	(%rcx,%r10,8), %rcx
	leaq	.Lanon.d40ce0d908814db1d08d1ec60e7ece38.12(%rip), %rsi
	movl	(%rsi,%r10,4), %r8d
	movq	%rax, %rdi
	shrq	$32, %rdi
	movl	%eax, %ebx
	movl	%ecx, %ebp
	shrq	$32, %rcx
	movq	%rbp, %rsi
	imulq	%rdi, %rsi
	movq	%rcx, %rax
	imulq	%rbx, %rax
	imulq	%rbx, %rbp
	imulq	%rdi, %rcx
	movl	%esi, %edi
	movl	%eax, %ebx
	addq	%rdi, %rbx
	shrq	$32, %rbp
	addq	%rbx, %rbp
	subq	$-2147483648, %rbp
	shrq	$32, %rsi
	addq	%rcx, %rsi
	shrq	$32, %rax
	addq	%rsi, %rax
	shrq	$32, %rbp
	leal	5(%r11), %ecx
	testl	%r11d, %r11d
	movl	$4, %edi
	cmovnel	%ecx, %edi
	addq	%rax, %rbp
	je	.LBB77_21
	testq	%rbp, %rbp
	je	.LBB77_22
	bsrq	%rbp, %rcx
	xorq	$63, %rcx
	jmp	.LBB77_23
.LBB77_21:
	xorl	%ecx, %ecx
	jmp	.LBB77_23
.LBB77_22:
	movl	$64, %ecx
.LBB77_23:
	shlq	%cl, %rbp
	leal	(%rdx,%r8), %edx
	addl	$64, %edx
	shll	%cl, %edi
	subl	%ecx, %edx
	movl	$-1074, %ecx
	subl	%edx, %ecx
	cmpl	$-1085, %edx
	movl	$11, %eax
	cmovll	%ecx, %eax
	cmpl	$65, %eax
	jbe	.LBB77_51
.LBB77_24:
	testq	%rbp, %rbp
	je	.LBB77_8
	testq	%rbp, %rbp
	je	.LBB77_28
.LBB77_26:
	bsrq	%rbp, %rcx
	xorq	$63, %rcx
.LBB77_29:
	shlq	%cl, %rbp
	subl	%ecx, %edx
	leal	11(%rdx), %eax
	cmpl	$-1075, %eax
	jg	.LBB77_38
	movl	$-1074, %edi
	subl	%edx, %edi
	pxor	%xmm0, %xmm0
	cmpl	$65, %edi
	jge	.LBB77_49
	movl	%edi, %eax
	andl	$63, %eax
	movq	$-1, %rsi
	cmpl	$64, %edi
	je	.LBB77_33
	movq	$-1, %rsi
	movl	%eax, %ecx
	shlq	%cl, %rsi
	notq	%rsi
	testl	%edi, %edi
	je	.LBB77_62
.LBB77_33:
	leal	-1(%rdi), %ecx
	movl	$1, %ebx
	shlq	%cl, %rbx
.LBB77_34:
	andq	%rbp, %rsi
	movl	%eax, %ecx
	shrq	%cl, %rbp
	xorl	%edx, %edx
	cmpl	$64, %edi
	cmovneq	%rbp, %rdx
	cmpq	%rbx, %rsi
	ja	.LBB77_37
	movl	$-1074, %eax
	testb	$1, %dl
	je	.LBB77_39
	cmpq	%rbx, %rsi
	jne	.LBB77_39
.LBB77_37:
	addq	$1, %rdx
	movl	$-1074, %eax
	jmp	.LBB77_39
.LBB77_38:
	movl	%ebp, %ecx
	andl	$2047, %ecx
	cmpq	$1024, %rcx
	seta	%cl
	movq	%rbp, %rsi
	shrq	$11, %rsi
	andl	$4095, %ebp
	cmpq	$3072, %rbp
	sete	%dl
	orb	%cl, %dl
	movzbl	%dl, %edx
	addq	%rsi, %rdx
.LBB77_39:
	movq	%rdx, %rcx
	shrq	$53, %rcx
	andl	$1, %ecx
	shrq	%cl, %rdx
	leal	(%rax,%rcx), %esi
	cmpl	$972, %esi
	jl	.LBB77_44
	leal	(%rax,%rcx), %eax
	addl	$-972, %eax
	cmpl	$52, %eax
	jg	.LBB77_44
	movabsq	$-9007199254740992, %rdi
	leal	-971(%rsi), %eax
	movslq	%eax, %rbp
	movl	$53, %ecx
	subq	%rbp, %rcx
	cmpq	$64, %rcx
	je	.LBB77_43
	movq	$-1, %rbp
	shlq	%cl, %rbp
	xorq	%rbp, %rdi
.LBB77_43:
	testq	%rdx, %rdi
	je	.LBB77_54
.LBB77_44:
	pxor	%xmm0, %xmm0
	testq	%rdx, %rdx
	je	.LBB77_49
.LBB77_45:
	cmpl	$-1074, %esi
	jl	.LBB77_49
	cmpl	$971, %esi
	jle	.LBB77_48
	movq	.LCPI77_0(%rip), %xmm0
	jmp	.LBB77_49
.LBB77_48:
	movabsq	$4503599627370495, %rax
	leaq	1(%rax), %rcx
	andq	%rdx, %rcx
	leal	1075(%rsi), %edi
	shlq	$52, %rdi
	testq	%rcx, %rcx
	cmovneq	%rdi, %rcx
	cmpl	$-1074, %esi
	cmovneq	%rdi, %rcx
	andq	%rax, %rdx
	orq	%rcx, %rdx
	movq	%rdx, %xmm0
.LBB77_49:
	movq	%xmm0, (%r12)
.LBB77_50:
	movq	%r15, 8(%r12)
	movq	%r14, 16(%r12)
	addq	$1064, %rsp
	.cfi_def_cfa_offset 56
	popq	%rbx
	.cfi_def_cfa_offset 48
	popq	%r12
	.cfi_def_cfa_offset 40
	popq	%r13
	.cfi_def_cfa_offset 32
	popq	%r14
	.cfi_def_cfa_offset 24
	popq	%r15
	.cfi_def_cfa_offset 16
	popq	%rbp
	.cfi_def_cfa_offset 8
	retq
.LBB77_51:
	.cfi_def_cfa_offset 1120
	movslq	%eax, %rcx
	movq	%rbp, %rsi
	cmpq	$64, %rcx
	je	.LBB77_56
	cmpq	$65, %rcx
	jne	.LBB77_55
	addq	%rbp, %rdi
	setae	%al
	testb	%al, %al
	je	.LBB77_58
	jmp	.LBB77_24
.LBB77_54:
	movl	%eax, %ecx
	shlq	%cl, %rdx
	movl	$971, %esi
	pxor	%xmm0, %xmm0
	testq	%rdx, %rdx
	jne	.LBB77_45
	jmp	.LBB77_49
.LBB77_55:
	movq	$-1, %rsi
	shlq	%cl, %rsi
	notq	%rsi
	andq	%rbp, %rsi
	testl	%eax, %eax
	je	.LBB77_64
.LBB77_56:
	addl	$-1, %eax
	movl	$1, %ebx
	movl	%eax, %ecx
	shlq	%cl, %rbx
.LBB77_57:
	movq	%rbx, %rax
	subq	%rdi, %rax
	cmpq	%rsi, %rax
	setae	%cl
	addq	%rdi, %rbx
	cmpq	%rbx, %rsi
	setae	%al
	orb	%cl, %al
	testb	%al, %al
	jne	.LBB77_24
.LBB77_58:
	testb	%r13b, %r13b
	jne	.LBB77_24
	testq	%rbp, %rbp
	je	.LBB77_63
	je	.LBB77_65
	bsrq	%rbp, %rcx
	xorq	$63, %rcx
	jmp	.LBB77_66
.LBB77_62:
	xorl	%ebx, %ebx
	jmp	.LBB77_34
.LBB77_63:
	xorl	%ecx, %ecx
	jmp	.LBB77_66
.LBB77_64:
	xorl	%ebx, %ebx
	jmp	.LBB77_57
.LBB77_65:
	movl	$64, %ecx
.LBB77_66:
	shlq	%cl, %rbp
	subl	%ecx, %edx
	leal	11(%rdx), %eax
	movl	$11, %ecx
	cmpl	$-1075, %eax
	jg	.LBB77_70
	movl	$-1074, %eax
	movl	$-1074, %ecx
	subl	%edx, %ecx
	cmpl	$63, %ecx
	jle	.LBB77_69
	pxor	%xmm0, %xmm0
	xorl	%ecx, %ecx
	jmp	.LBB77_83
.LBB77_69:
	andl	$63, %ecx
.LBB77_70:
	shrq	%cl, %rbp
	movq	%rbp, %rcx
	shrq	$53, %rcx
	andl	$1, %ecx
	shrq	%cl, %rbp
	leal	(%rax,%rcx), %edx
	cmpl	$972, %edx
	jl	.LBB77_76
	leal	(%rax,%rcx), %eax
	addl	$-972, %eax
	cmpl	$52, %eax
	jg	.LBB77_76
	movabsq	$-9007199254740992, %rdi
	leal	-971(%rdx), %eax
	movslq	%eax, %rsi
	movl	$53, %ecx
	subq	%rsi, %rcx
	cmpq	$64, %rcx
	je	.LBB77_74
	movq	$-1, %rsi
	shlq	%cl, %rsi
	xorq	%rsi, %rdi
.LBB77_74:
	testq	%rbp, %rdi
	jne	.LBB77_76
	movl	%eax, %ecx
	shlq	%cl, %rbp
	movl	$971, %edx
.LBB77_76:
	xorl	%ecx, %ecx
	pxor	%xmm0, %xmm0
	testq	%rbp, %rbp
	je	.LBB77_83
	cmpl	$-1074, %edx
	jl	.LBB77_83
	movabsq	$9218868437227405312, %rax
	cmpl	$971, %edx
	jg	.LBB77_81
	movabsq	$4503599627370495, %rcx
	leaq	1(%rcx), %rsi
	andq	%rbp, %rsi
	leal	1075(%rdx), %edi
	shlq	$52, %rdi
	testq	%rsi, %rsi
	cmovneq	%rdi, %rsi
	cmpl	$-1074, %edx
	cmovneq	%rdi, %rsi
	andq	%rcx, %rbp
	movq	%rbp, %rcx
	orq	%rsi, %rcx
	andq	%rax, %rsi
	cmpq	%rax, %rsi
	jne	.LBB77_82
	movq	%rcx, %rax
.LBB77_81:
	movq	%rax, (%r12)
	jmp	.LBB77_50
.LBB77_82:
	movq	%rcx, %xmm0
.LBB77_83:
	movq	%rcx, 16(%rsp)
	movq	1120(%rsp), %rax
	movq	(%rax), %r13
	movq	8(%rax), %rbp
	movq	16(%rax), %r9
	movq	24(%rax), %rsi
	movq	32(%rax), %rdx
	movl	48(%rax), %r10d
	movl	52(%rax), %r8d
	leaq	(%rsi,%rbp), %rax
	subq	%rdx, %rax
	cmpq	$769, %rax
	movl	$769, %edi
	cmovbq	%rax, %rdi
	testq	%rbp, %rbp
	je	.LBB77_88
	leaq	-1(%rbp), %rcx
	cmpq	$2147483647, %rcx
	movl	$2147483647, %eax
	cmovbl	%ecx, %eax
	movl	%eax, %ecx
	shrl	$31, %ecx
	addl	$2147483647, %ecx
	addl	%r10d, %eax
	cmovol	%ecx, %eax
	movl	$1, %ebx
	subl	%edi, %ebx
	addl	%eax, %ebx
	js	.LBB77_89
.LBB77_85:
	movq	%r13, 544(%rsp)
	movq	%rbp, 552(%rsp)
	movq	%r9, 560(%rsp)
	movq	%rsi, 568(%rsp)
	movq	%rdx, 576(%rsp)
	movq	8(%rsp), %rax
	movq	%rax, 584(%rsp)
	movl	%r10d, 592(%rsp)
	movl	%r8d, 596(%rsp)
	leaq	24(%rsp), %rbp
	leaq	544(%rsp), %rsi
	movl	$769, %edx
	movq	%rbp, %rdi
	callq	_ZN12lexical_core4atof9algorithm6bigint14parse_mantissa17he470de7e48e5a437E
	movl	$5, %esi
	movq	%rbp, %rdi
	movl	%ebx, %edx
	callq	_ZN12lexical_core4atof9algorithm4math5small10imul_power17hab411dbeb8da1948E
	movq	%rbp, %rdi
	movl	%ebx, %esi
	callq	_ZN12lexical_core4atof9algorithm4math8SmallOps9imul_pow217h478ea8981f3411f2E
	leaq	32(%rsp), %rdi
	movq	24(%rsp), %rbx
	movq	%rbx, %rsi
	callq	_ZN12lexical_core4atof9algorithm4math4Hi644hi6417hb3712d0aa1be5446E
	movq	%rax, %rsi
	movl	%edx, %r8d
	xorl	%ecx, %ecx
	testq	%rbx, %rbx
	je	.LBB77_98
	movq	24(%rsp,%rbx,8), %rax
	testq	%rax, %rax
	je	.LBB77_99
	bsrq	%rax, %rdi
	xorq	$63, %rdi
	jmp	.LBB77_100
.LBB77_88:
	cmpq	$2147483647, %rdx
	movl	$2147483647, %ebx
	cmovbl	%edx, %ebx
	movl	%ebx, %eax
	sarl	$31, %eax
	addl	$-2147483648, %eax
	movl	%r10d, %ecx
	subl	%ebx, %ecx
	cmovol	%eax, %ecx
	leal	-1(%rcx), %ebx
	cmpl	$1, %ecx
	movl	$-2147483648, %eax
	cmovnol	%ebx, %eax
	movl	$1, %ebx
	subl	%edi, %ebx
	addl	%eax, %ebx
	jns	.LBB77_85
.LBB77_89:
	movq	%xmm0, (%rsp)
	movq	%r13, 24(%rsp)
	movq	%rbp, 32(%rsp)
	movq	%r9, 40(%rsp)
	movq	%rsi, 48(%rsp)
	movq	%rdx, 56(%rsp)
	movq	8(%rsp), %rax
	movq	%rax, 64(%rsp)
	movl	%r10d, 72(%rsp)
	movl	%r8d, 76(%rsp)
	leaq	544(%rsp), %rdi
	leaq	24(%rsp), %rsi
	movl	$769, %edx
	callq	_ZN12lexical_core4atof9algorithm6bigint14parse_mantissa17he470de7e48e5a437E
	movabsq	$9218868437227405312, %rax
	movq	16(%rsp), %r13
	andq	%r13, %rax
	movq	%rax, %rcx
	shrq	$52, %rcx
	addl	$-1075, %ecx
	movq	%r13, %rdx
	addq	%r13, %rdx
	movabsq	$9007199254740992, %rsi
	leaq	-2(%rsi), %rdi
	andq	%rdi, %rdx
	orq	%rdx, %rsi
	testq	%rax, %rax
	movl	$-1074, %eax
	cmovnel	%ecx, %eax
	cmoveq	%rdx, %rsi
	orq	$1, %rsi
	movq	$1, 24(%rsp)
	movq	%rsi, 32(%rsp)
	movl	%ebx, %ebp
	notl	%ebp
	addl	%eax, %ebp
	negl	%ebx
	leaq	24(%rsp), %rdi
	movl	$5, %esi
	movl	%ebx, %edx
	callq	_ZN12lexical_core4atof9algorithm4math5small10imul_power17hab411dbeb8da1948E
	testl	%ebp, %ebp
	jle	.LBB77_122
	leaq	24(%rsp), %rdi
.LBB77_91:
	movl	%ebp, %esi
	callq	_ZN12lexical_core4atof9algorithm4math8SmallOps9imul_pow217h478ea8981f3411f2E
	movq	(%rsp), %xmm0
	movq	544(%rsp), %rax
	movq	24(%rsp), %rcx
	cmpq	%rcx, %rax
	ja	.LBB77_124
	jmp	.LBB77_92
.LBB77_98:
	xorl	%edi, %edi
	jmp	.LBB77_100
.LBB77_99:
	movl	$64, %edi
.LBB77_100:
	movl	$64, %ebp
	movq	%rbx, %rax
	mulq	%rbp
	seto	%bl
	subl	%edi, %eax
	addl	$-64, %eax
	movl	$-65, %edx
	testb	%bl, %bl
	cmovel	%eax, %edx
	testq	%rsi, %rsi
	je	.LBB77_104
	je	.LBB77_103
	bsrq	%rsi, %rbp
	xorq	$63, %rbp
.LBB77_103:
	movl	%ebp, %ecx
.LBB77_104:
	shlq	%cl, %rsi
	subl	%ecx, %edx
	leal	11(%rdx), %eax
	cmpl	$-1075, %eax
	jg	.LBB77_114
	movl	$-1074, %eax
	subl	%edx, %eax
	pxor	%xmm0, %xmm0
	cmpl	$65, %eax
	jge	.LBB77_49
	movq	$-1, %rdx
	cmpl	$64, %eax
	je	.LBB77_108
	movslq	%eax, %rcx
	movq	$-1, %rdx
	shlq	%cl, %rdx
	notq	%rdx
	testl	%eax, %eax
	je	.LBB77_127
.LBB77_108:
	leal	-1(%rax), %ecx
	movl	$1, %ebp
	shlq	%cl, %rbp
.LBB77_109:
	andq	%rsi, %rdx
	cmpq	%rbp, %rdx
	sete	%bl
	movl	%eax, %ecx
	shrq	%cl, %rsi
	xorl	%ecx, %ecx
	cmpl	$64, %eax
	cmovneq	%rsi, %rcx
	cmpq	%rbp, %rdx
	ja	.LBB77_113
	andb	%r8b, %bl
	jne	.LBB77_113
	movl	$-1074, %eax
	testb	$1, %cl
	je	.LBB77_115
	cmpq	%rbp, %rdx
	jne	.LBB77_115
.LBB77_113:
	addq	$1, %rcx
	movl	$-1074, %eax
	jmp	.LBB77_115
.LBB77_114:
	movl	%esi, %edx
	andl	$2047, %edx
	movq	%rsi, %rdi
	shrq	$11, %rdi
	andl	$4095, %esi
	leaq	1(%rdi), %rbp
	testb	$1, %r8b
	movq	%rdi, %rcx
	cmovneq	%rbp, %rcx
	cmpq	$1024, %rdx
	cmovneq	%rdi, %rcx
	cmovaq	%rbp, %rcx
	cmpq	$3072, %rsi
	cmoveq	%rbp, %rcx
.LBB77_115:
	movabsq	$9007199254740992, %rdx
	andq	%rcx, %rdx
	movq	%rdx, %rbp
	shrq	$53, %rbp
	movq	%rcx, %rdi
	shrq	%rdi
	testq	%rdx, %rdx
	movq	%rcx, %rdx
	cmovneq	%rdi, %rdx
	leal	(%rax,%rbp), %esi
	cmoveq	%rcx, %rdi
	cmpl	$972, %esi
	jl	.LBB77_44
	leal	(%rax,%rbp), %eax
	addl	$-972, %eax
	cmpl	$52, %eax
	jg	.LBB77_44
	movabsq	$-9007199254740992, %rbp
	leal	-971(%rsi), %eax
	movslq	%eax, %rbx
	movl	$53, %ecx
	subq	%rbx, %rcx
	cmpq	$64, %rcx
	je	.LBB77_119
	movq	$-1, %rbx
	shlq	%cl, %rbx
	xorq	%rbx, %rbp
.LBB77_119:
	testq	%rdi, %rbp
	jne	.LBB77_44
	movl	%eax, %ecx
	shlq	%cl, %rdi
	movl	$971, %esi
	movq	%rdi, %rdx
	pxor	%xmm0, %xmm0
	testq	%rdx, %rdx
	jne	.LBB77_45
	jmp	.LBB77_49
.LBB77_122:
	movq	(%rsp), %xmm0
	js	.LBB77_125
	movq	544(%rsp), %rax
	movq	24(%rsp), %rcx
	cmpq	%rcx, %rax
	jbe	.LBB77_92
.LBB77_124:
	addq	$1, %r13
	movq	%r13, %xmm0
	jmp	.LBB77_49
.LBB77_92:
	jb	.LBB77_49
	leaq	(%rsp,%rax,8), %rdx
	addq	$544, %rdx
	shlq	$3, %rax
	negq	%rax
	leaq	(%rsp,%rcx,8), %rsi
	addq	$24, %rsi
	shlq	$3, %rcx
	negq	%rcx
	xorl	%edi, %edi
.LBB77_94:
	cmpq	%rdi, %rax
	je	.LBB77_126
	cmpq	%rdi, %rcx
	je	.LBB77_126
	movq	(%rdx,%rdi), %rbp
	movq	(%rsi,%rdi), %rbx
	cmpq	%rbx, %rbp
	ja	.LBB77_124
	addq	$-8, %rdi
	cmpq	%rbx, %rbp
	jae	.LBB77_94
	jmp	.LBB77_49
.LBB77_125:
	negl	%ebp
	leaq	544(%rsp), %rdi
	jmp	.LBB77_91
.LBB77_126:
	testb	$1, %r13b
	je	.LBB77_49
	jmp	.LBB77_124
.LBB77_127:
	xorl	%ebp, %ebp
	jmp	.LBB77_109
.LBB77_128:
	leaq	.Lanon.a2ebce93e36e790eb83c06650e1964fa.4(%rip), %rdi
	movl	$10, %edx
	callq	_ZN4core9panicking18panic_bounds_check17h620ba7e4e283471aE
	ud2
.Lfunc_end77:
	.size	_ZN12lexical_core4atof9algorithm7correct13pown_fallback17h2aaa9fa54fab7f0eE, .Lfunc_end77-_ZN12lexical_core4atof9algorithm7correct13pown_fallback17h2aaa9fa54fab7f0eE
	.cfi_endproc

	.section	.rodata.cst4,"aM",@progbits,4
	.p2align	2
.LCPI78_0:
	.long	2139095040
	.section	.text._ZN12lexical_core4atof9algorithm7correct13pown_fallback17hcee1da2201574e58E,"ax",@progbits
	.p2align	4, 0x90
	.type	_ZN12lexical_core4atof9algorithm7correct13pown_fallback17hcee1da2201574e58E,@function
_ZN12lexical_core4atof9algorithm7correct13pown_fallback17hcee1da2201574e58E:
.Lfunc_begin78:
	.cfi_startproc
	pushq	%rbp
	.cfi_def_cfa_offset 16
	pushq	%r15
	.cfi_def_cfa_offset 24
	pushq	%r14
	.cfi_def_cfa_offset 32
	pushq	%r13
	.cfi_def_cfa_offset 40
	pushq	%r12
	.cfi_def_cfa_offset 48
	pushq	%rbx
	.cfi_def_cfa_offset 56
	subq	$1064, %rsp
	.cfi_def_cfa_offset 1120
	.cfi_offset %rbx, -56
	.cfi_offset %r12, -48
	.cfi_offset %r13, -40
	.cfi_offset %r14, -32
	.cfi_offset %r15, -24
	.cfi_offset %rbp, -16
	movq	%rdx, %r14
	movq	%rsi, %r15
	movq	%rdi, %r12
	addl	$350, %r9d
	js	.LBB78_7
	movl	%ecx, %r13d
	movslq	%r9d, %rax
	imulq	$1717986919, %rax, %rcx
	movq	%rcx, %rdx
	shrq	$63, %rdx
	sarq	$34, %rcx
	leal	(%rcx,%rdx), %eax
	cmpl	$65, %eax
	ja	.LBB78_27
	movq	1120(%rsp), %rsi
	movq	40(%rsi), %rdi
	addl	%edx, %ecx
	addl	%ecx, %ecx
	leal	(%rcx,%rcx,4), %ecx
	subl	%ecx, %r9d
	xorl	%r11d, %r11d
	testq	%rdi, %rdi
	setne	%cl
	movslq	%r9d, %rsi
	cmpl	$10, %esi
	jae	.LBB78_131
	movslq	%eax, %r10
	movb	%cl, %r11b
	shll	$2, %r11d
	leaq	.Lanon.d40ce0d908814db1d08d1ec60e7ece38.13(%rip), %rcx
	movq	%r8, %rax
	mulq	(%rcx,%rsi,8)
	movq	%rdi, 16(%rsp)
	jno	.LBB78_9
	testq	%r8, %r8
	je	.LBB78_12
	je	.LBB78_14
	bsrq	%r8, %rcx
	xorq	$63, %rcx
	jmp	.LBB78_15
.LBB78_7:
	xorl	%edx, %edx
.LBB78_8:
	xorl	%ebp, %ebp
	xorl	%ecx, %ecx
	jmp	.LBB78_29
.LBB78_27:
	movabsq	$-9223372036854775808, %rbp
	movl	$2047, %edx
	testq	%rbp, %rbp
	jne	.LBB78_26
.LBB78_28:
	movl	$64, %ecx
	jmp	.LBB78_29
.LBB78_9:
	testq	%rax, %rax
	je	.LBB78_13
	je	.LBB78_16
	bsrq	%rax, %rdx
	xorq	$63, %rdx
	jmp	.LBB78_17
.LBB78_12:
	xorl	%ecx, %ecx
	jmp	.LBB78_15
.LBB78_13:
	xorl	%edx, %edx
	jmp	.LBB78_17
.LBB78_14:
	movl	$64, %ecx
.LBB78_15:
	shlq	%cl, %r8
	leaq	.Lanon.d40ce0d908814db1d08d1ec60e7ece38.9(%rip), %rax
	movq	(%rax,%rsi,8), %rdx
	leaq	.Lanon.d40ce0d908814db1d08d1ec60e7ece38.10(%rip), %r9
	movq	%r8, %rbx
	shrq	$32, %rbx
	movl	%r8d, %r8d
	movl	%edx, %eax
	shrq	$32, %rdx
	movq	%rax, %rbp
	imulq	%rbx, %rbp
	movq	%rdx, %rdi
	imulq	%r8, %rdi
	imulq	%r8, %rax
	imulq	%rbx, %rdx
	movl	%ebp, %r8d
	movl	%edi, %ebx
	addq	%r8, %rbx
	shrq	$32, %rax
	addq	%rbx, %rax
	subq	$-2147483648, %rax
	shrq	$32, %rbp
	addq	%rdx, %rbp
	shrq	$32, %rdi
	addq	%rbp, %rdi
	shrq	$32, %rax
	addq	%rdi, %rax
	movl	$64, %edx
	subl	%ecx, %edx
	addl	(%r9,%rsi,4), %edx
	addl	$4, %r11d
	jmp	.LBB78_18
.LBB78_16:
	movl	$64, %edx
.LBB78_17:
	movl	%edx, %ecx
	shlq	%cl, %rax
	negl	%edx
.LBB78_18:
	leaq	.Lanon.d40ce0d908814db1d08d1ec60e7ece38.11(%rip), %rcx
	movq	(%rcx,%r10,8), %rcx
	leaq	.Lanon.d40ce0d908814db1d08d1ec60e7ece38.12(%rip), %rsi
	movl	(%rsi,%r10,4), %r8d
	movq	%rax, %rdi
	shrq	$32, %rdi
	movl	%eax, %ebx
	movl	%ecx, %ebp
	shrq	$32, %rcx
	movq	%rbp, %rsi
	imulq	%rdi, %rsi
	movq	%rcx, %rax
	imulq	%rbx, %rax
	imulq	%rbx, %rbp
	imulq	%rdi, %rcx
	movl	%esi, %edi
	movl	%eax, %ebx
	addq	%rdi, %rbx
	shrq	$32, %rbp
	addq	%rbx, %rbp
	subq	$-2147483648, %rbp
	shrq	$32, %rsi
	addq	%rcx, %rsi
	shrq	$32, %rax
	addq	%rsi, %rax
	shrq	$32, %rbp
	leal	5(%r11), %ecx
	testl	%r11d, %r11d
	movl	$4, %edi
	cmovnel	%ecx, %edi
	addq	%rax, %rbp
	je	.LBB78_21
	testq	%rbp, %rbp
	je	.LBB78_22
	bsrq	%rbp, %rcx
	xorq	$63, %rcx
	jmp	.LBB78_23
.LBB78_21:
	xorl	%ecx, %ecx
	jmp	.LBB78_23
.LBB78_22:
	movl	$64, %ecx
.LBB78_23:
	shlq	%cl, %rbp
	leal	(%rdx,%r8), %edx
	addl	$64, %edx
	shll	%cl, %edi
	subl	%ecx, %edx
	movl	$-149, %ecx
	subl	%edx, %ecx
	cmpl	$-189, %edx
	movl	$40, %eax
	cmovll	%ecx, %eax
	cmpl	$65, %eax
	jbe	.LBB78_52
.LBB78_24:
	testq	%rbp, %rbp
	je	.LBB78_8
	testq	%rbp, %rbp
	je	.LBB78_28
.LBB78_26:
	bsrq	%rbp, %rcx
	xorq	$63, %rcx
.LBB78_29:
	shlq	%cl, %rbp
	subl	%ecx, %edx
	leal	40(%rdx), %eax
	cmpl	$-150, %eax
	jg	.LBB78_38
	movl	$-149, %edi
	subl	%edx, %edi
	pxor	%xmm0, %xmm0
	cmpl	$65, %edi
	jge	.LBB78_50
	movl	%edi, %eax
	andl	$63, %eax
	movq	$-1, %rsi
	cmpl	$64, %edi
	je	.LBB78_33
	movq	$-1, %rsi
	movl	%eax, %ecx
	shlq	%cl, %rsi
	notq	%rsi
	testl	%edi, %edi
	je	.LBB78_63
.LBB78_33:
	leal	-1(%rdi), %ecx
	movl	$1, %ebx
	shlq	%cl, %rbx
.LBB78_34:
	andq	%rbp, %rsi
	movl	%eax, %ecx
	shrq	%cl, %rbp
	xorl	%edx, %edx
	cmpl	$64, %edi
	cmovneq	%rbp, %rdx
	cmpq	%rbx, %rsi
	ja	.LBB78_37
	movl	$-149, %eax
	testb	$1, %dl
	je	.LBB78_39
	cmpq	%rbx, %rsi
	jne	.LBB78_39
.LBB78_37:
	addq	$1, %rdx
	movl	$-149, %eax
	jmp	.LBB78_39
.LBB78_38:
	movabsq	$1099511627775, %rcx
	andq	%rbp, %rcx
	movabsq	$549755813888, %rdx
	cmpq	%rdx, %rcx
	seta	%cl
	movq	%rbp, %rsi
	shrq	$40, %rsi
	movabsq	$2199023255551, %rdx
	andq	%rbp, %rdx
	movabsq	$1649267441664, %rdi
	cmpq	%rdi, %rdx
	sete	%dl
	orb	%cl, %dl
	movzbl	%dl, %edx
	addq	%rsi, %rdx
.LBB78_39:
	movl	%edx, %ecx
	shrl	$24, %ecx
	andl	$1, %ecx
	shrq	%cl, %rdx
	leal	(%rax,%rcx), %esi
	cmpl	$105, %esi
	jl	.LBB78_44
	leal	(%rax,%rcx), %eax
	addl	$-105, %eax
	cmpl	$23, %eax
	jg	.LBB78_44
	leal	-104(%rsi), %eax
	movslq	%eax, %rdi
	movl	$24, %ecx
	subq	%rdi, %rcx
	movq	$-16777216, %rdi
	cmpq	$64, %rcx
	je	.LBB78_43
	movq	$-1, %rdi
	shlq	%cl, %rdi
	xorq	$-16777216, %rdi
.LBB78_43:
	testq	%rdx, %rdi
	je	.LBB78_55
.LBB78_44:
	pxor	%xmm0, %xmm0
	testq	%rdx, %rdx
	je	.LBB78_50
.LBB78_45:
	cmpl	$-149, %esi
	jl	.LBB78_50
	cmpl	$104, %esi
	jle	.LBB78_48
.LBB78_47:
	movd	.LCPI78_0(%rip), %xmm0
	jmp	.LBB78_50
.LBB78_48:
	movl	%esi, %eax
	shll	$23, %eax
	addl	$1258291200, %eax
	movl	%edx, %ecx
	andl	$8388607, %ecx
	xorl	%edi, %edi
	testl	$8388608, %edx
	cmovnel	%eax, %edi
	cmpl	$-149, %esi
.LBB78_49:
	cmovnel	%eax, %edi
	orl	%ecx, %edi
	movd	%edi, %xmm0
.LBB78_50:
	movd	%xmm0, (%r12)
.LBB78_51:
	movq	%r15, 8(%r12)
	movq	%r14, 16(%r12)
	addq	$1064, %rsp
	.cfi_def_cfa_offset 56
	popq	%rbx
	.cfi_def_cfa_offset 48
	popq	%r12
	.cfi_def_cfa_offset 40
	popq	%r13
	.cfi_def_cfa_offset 32
	popq	%r14
	.cfi_def_cfa_offset 24
	popq	%r15
	.cfi_def_cfa_offset 16
	popq	%rbp
	.cfi_def_cfa_offset 8
	retq
.LBB78_52:
	.cfi_def_cfa_offset 1120
	movslq	%eax, %rcx
	movq	%rbp, %rsi
	cmpq	$64, %rcx
	je	.LBB78_57
	cmpq	$65, %rcx
	jne	.LBB78_56
	addq	%rbp, %rdi
	setae	%al
	testb	%al, %al
	je	.LBB78_59
	jmp	.LBB78_24
.LBB78_55:
	movl	%eax, %ecx
	shlq	%cl, %rdx
	movl	$104, %esi
	pxor	%xmm0, %xmm0
	testq	%rdx, %rdx
	jne	.LBB78_45
	jmp	.LBB78_50
.LBB78_56:
	movq	$-1, %rsi
	shlq	%cl, %rsi
	notq	%rsi
	andq	%rbp, %rsi
	testl	%eax, %eax
	je	.LBB78_65
.LBB78_57:
	addl	$-1, %eax
	movl	$1, %ebx
	movl	%eax, %ecx
	shlq	%cl, %rbx
.LBB78_58:
	movq	%rbx, %rax
	subq	%rdi, %rax
	cmpq	%rsi, %rax
	setae	%cl
	addq	%rdi, %rbx
	cmpq	%rbx, %rsi
	setae	%al
	orb	%cl, %al
	testb	%al, %al
	jne	.LBB78_24
.LBB78_59:
	testb	%r13b, %r13b
	jne	.LBB78_24
	testq	%rbp, %rbp
	je	.LBB78_64
	je	.LBB78_66
	bsrq	%rbp, %rcx
	xorq	$63, %rcx
	jmp	.LBB78_67
.LBB78_63:
	xorl	%ebx, %ebx
	jmp	.LBB78_34
.LBB78_64:
	xorl	%ecx, %ecx
	jmp	.LBB78_67
.LBB78_65:
	xorl	%ebx, %ebx
	jmp	.LBB78_58
.LBB78_66:
	movl	$64, %ecx
.LBB78_67:
	shlq	%cl, %rbp
	subl	%ecx, %edx
	leal	40(%rdx), %eax
	movl	$40, %ecx
	cmpl	$-150, %eax
	jg	.LBB78_71
	movl	$-149, %eax
	movl	$-149, %ecx
	subl	%edx, %ecx
	cmpl	$63, %ecx
	jle	.LBB78_70
	pxor	%xmm0, %xmm0
	xorl	%r13d, %r13d
	jmp	.LBB78_83
.LBB78_70:
	andl	$63, %ecx
.LBB78_71:
	shrq	%cl, %rbp
	movl	%ebp, %ecx
	shrl	$24, %ecx
	andl	$1, %ecx
	shrq	%cl, %rbp
	leal	(%rax,%rcx), %edx
	cmpl	$105, %edx
	jl	.LBB78_77
	leal	(%rax,%rcx), %eax
	addl	$-105, %eax
	cmpl	$23, %eax
	jg	.LBB78_77
	leal	-104(%rdx), %eax
	movslq	%eax, %rsi
	movl	$24, %ecx
	subq	%rsi, %rcx
	movq	$-16777216, %rdi
	cmpq	$64, %rcx
	je	.LBB78_75
	movq	$-1, %rdi
	shlq	%cl, %rdi
	xorq	$-16777216, %rdi
.LBB78_75:
	testq	%rbp, %rdi
	jne	.LBB78_77
	movl	%eax, %ecx
	shlq	%cl, %rbp
	movl	$104, %edx
.LBB78_77:
	xorl	%r13d, %r13d
	pxor	%xmm0, %xmm0
	testq	%rbp, %rbp
	je	.LBB78_83
	cmpl	$-149, %edx
	jl	.LBB78_83
	movl	$2139095040, %r13d
	cmpl	$104, %edx
	jg	.LBB78_81
	movl	%edx, %eax
	shll	$23, %eax
	addl	$1258291200, %eax
	movl	%ebp, %ecx
	andl	$8388607, %ecx
	xorl	%r13d, %r13d
	testl	$8388608, %ebp
	cmovnel	%eax, %r13d
	cmpl	$-149, %edx
	cmovnel	%eax, %r13d
	orl	%ecx, %r13d
	movl	%r13d, %eax
	andl	$2139095040, %eax
	cmpl	$2139095040, %eax
	jne	.LBB78_82
.LBB78_81:
	movl	%r13d, (%r12)
	jmp	.LBB78_51
.LBB78_82:
	movd	%r13d, %xmm0
.LBB78_83:
	movq	1120(%rsp), %rax
	movq	(%rax), %r10
	movq	8(%rax), %rbp
	movq	16(%rax), %r9
	movq	24(%rax), %rsi
	movq	32(%rax), %rdx
	movl	48(%rax), %r11d
	movl	52(%rax), %r8d
	leaq	(%rsi,%rbp), %rax
	subq	%rdx, %rax
	cmpq	$114, %rax
	movl	$114, %edi
	cmovbq	%rax, %rdi
	testq	%rbp, %rbp
	je	.LBB78_88
	leaq	-1(%rbp), %rcx
	cmpq	$2147483647, %rcx
	movl	$2147483647, %eax
	cmovbl	%ecx, %eax
	movl	%eax, %ecx
	shrl	$31, %ecx
	addl	$2147483647, %ecx
	addl	%r11d, %eax
	cmovol	%ecx, %eax
	movl	$1, %ebx
	subl	%edi, %ebx
	addl	%eax, %ebx
	js	.LBB78_89
.LBB78_85:
	movq	%r10, 544(%rsp)
	movq	%rbp, 552(%rsp)
	movq	%r9, 560(%rsp)
	movq	%rsi, 568(%rsp)
	movq	%rdx, 576(%rsp)
	movq	16(%rsp), %rax
	movq	%rax, 584(%rsp)
	movl	%r11d, 592(%rsp)
	movl	%r8d, 596(%rsp)
	leaq	24(%rsp), %rbp
	leaq	544(%rsp), %rsi
	movl	$114, %edx
	movq	%rbp, %rdi
	callq	_ZN12lexical_core4atof9algorithm6bigint14parse_mantissa17he470de7e48e5a437E
	movl	$5, %esi
	movq	%rbp, %rdi
	movl	%ebx, %edx
	callq	_ZN12lexical_core4atof9algorithm4math5small10imul_power17hab411dbeb8da1948E
	movq	%rbp, %rdi
	movl	%ebx, %esi
	callq	_ZN12lexical_core4atof9algorithm4math8SmallOps9imul_pow217h478ea8981f3411f2E
	leaq	32(%rsp), %rdi
	movq	24(%rsp), %rbx
	movq	%rbx, %rsi
	callq	_ZN12lexical_core4atof9algorithm4math4Hi644hi6417hb3712d0aa1be5446E
	movq	%rax, %rsi
	movl	%edx, %r8d
	xorl	%ecx, %ecx
	testq	%rbx, %rbx
	je	.LBB78_98
	movq	24(%rsp,%rbx,8), %rax
	testq	%rax, %rax
	je	.LBB78_99
	bsrq	%rax, %rdi
	xorq	$63, %rdi
	jmp	.LBB78_100
.LBB78_88:
	cmpq	$2147483647, %rdx
	movl	$2147483647, %ebx
	cmovbl	%edx, %ebx
	movl	%ebx, %eax
	sarl	$31, %eax
	addl	$-2147483648, %eax
	movl	%r11d, %ecx
	subl	%ebx, %ecx
	cmovol	%eax, %ecx
	leal	-1(%rcx), %ebx
	cmpl	$1, %ecx
	movl	$-2147483648, %eax
	cmovnol	%ebx, %eax
	movl	$1, %ebx
	subl	%edi, %ebx
	addl	%eax, %ebx
	jns	.LBB78_85
.LBB78_89:
	movd	%xmm0, 12(%rsp)
	movq	%r10, 24(%rsp)
	movq	%rbp, 32(%rsp)
	movq	%r9, 40(%rsp)
	movq	%rsi, 48(%rsp)
	movq	%rdx, 56(%rsp)
	movq	16(%rsp), %rax
	movq	%rax, 64(%rsp)
	movl	%r11d, 72(%rsp)
	movl	%r8d, 76(%rsp)
	leaq	544(%rsp), %rdi
	leaq	24(%rsp), %rsi
	movl	$114, %edx
	callq	_ZN12lexical_core4atof9algorithm6bigint14parse_mantissa17he470de7e48e5a437E
	movl	%r13d, %eax
	andl	$2139095040, %eax
	movl	%eax, %ecx
	shrl	$23, %ecx
	addl	$-150, %ecx
	leal	(%r13,%r13), %edx
	andl	$16777214, %edx
	leal	16777216(%rdx), %esi
	testl	%eax, %eax
	movl	$-149, %eax
	cmovnel	%ecx, %eax
	cmovel	%edx, %esi
	orl	$1, %esi
	movq	$1, 24(%rsp)
	movq	%rsi, 32(%rsp)
	movl	%ebx, %ebp
	notl	%ebp
	addl	%eax, %ebp
	negl	%ebx
	leaq	24(%rsp), %rdi
	movl	$5, %esi
	movl	%ebx, %edx
	callq	_ZN12lexical_core4atof9algorithm4math5small10imul_power17hab411dbeb8da1948E
	testl	%ebp, %ebp
	jle	.LBB78_125
	leaq	24(%rsp), %rdi
.LBB78_91:
	movl	%ebp, %esi
	callq	_ZN12lexical_core4atof9algorithm4math8SmallOps9imul_pow217h478ea8981f3411f2E
	movd	12(%rsp), %xmm0
	movq	544(%rsp), %rax
	movq	24(%rsp), %rcx
	cmpq	%rcx, %rax
	ja	.LBB78_127
	jmp	.LBB78_92
.LBB78_98:
	xorl	%edi, %edi
	jmp	.LBB78_100
.LBB78_99:
	movl	$64, %edi
.LBB78_100:
	movl	$64, %ebp
	movq	%rbx, %rax
	mulq	%rbp
	seto	%bl
	subl	%edi, %eax
	addl	$-64, %eax
	movl	$-65, %edx
	testb	%bl, %bl
	cmovel	%eax, %edx
	testq	%rsi, %rsi
	je	.LBB78_104
	je	.LBB78_103
	bsrq	%rsi, %rbp
	xorq	$63, %rbp
.LBB78_103:
	movl	%ebp, %ecx
.LBB78_104:
	shlq	%cl, %rsi
	subl	%ecx, %edx
	leal	40(%rdx), %eax
	cmpl	$-150, %eax
	jg	.LBB78_114
	movl	$-149, %eax
	subl	%edx, %eax
	pxor	%xmm0, %xmm0
	cmpl	$65, %eax
	jge	.LBB78_50
	movq	$-1, %rdx
	cmpl	$64, %eax
	je	.LBB78_108
	movslq	%eax, %rcx
	movq	$-1, %rdx
	shlq	%cl, %rdx
	notq	%rdx
	testl	%eax, %eax
	je	.LBB78_130
.LBB78_108:
	leal	-1(%rax), %ecx
	movl	$1, %ebp
	shlq	%cl, %rbp
.LBB78_109:
	andq	%rsi, %rdx
	cmpq	%rbp, %rdx
	sete	%bl
	movl	%eax, %ecx
	shrq	%cl, %rsi
	xorl	%ecx, %ecx
	cmpl	$64, %eax
	cmovneq	%rsi, %rcx
	cmpq	%rbp, %rdx
	ja	.LBB78_113
	andb	%r8b, %bl
	jne	.LBB78_113
	movl	$-149, %eax
	testb	$1, %cl
	je	.LBB78_115
	cmpq	%rbp, %rdx
	jne	.LBB78_115
.LBB78_113:
	addq	$1, %rcx
	movl	$-149, %eax
	jmp	.LBB78_115
.LBB78_114:
	movabsq	$1099511627775, %rdx
	andq	%rsi, %rdx
	movq	%rsi, %rdi
	shrq	$40, %rdi
	movabsq	$2199023255551, %rbp
	andq	%rsi, %rbp
	leaq	1(%rdi), %rsi
	testb	$1, %r8b
	movq	%rdi, %rcx
	cmovneq	%rsi, %rcx
	movabsq	$549755813888, %rbx
	cmpq	%rbx, %rdx
	cmovneq	%rdi, %rcx
	cmovaq	%rsi, %rcx
	movabsq	$1649267441664, %rdx
	cmpq	%rdx, %rbp
	cmoveq	%rsi, %rcx
.LBB78_115:
	movl	%ecx, %edx
	andl	$16777216, %edx
	movq	%rdx, %rbp
	shrq	$24, %rbp
	movq	%rcx, %rdi
	shrq	%rdi
	testq	%rdx, %rdx
	movq	%rcx, %rsi
	cmovneq	%rdi, %rsi
	leal	(%rax,%rbp), %edx
	cmoveq	%rcx, %rdi
	cmpl	$105, %edx
	jl	.LBB78_121
	leal	(%rax,%rbp), %eax
	addl	$-105, %eax
	cmpl	$23, %eax
	jg	.LBB78_121
	leal	-104(%rdx), %eax
	movslq	%eax, %rbp
	movl	$24, %ecx
	subq	%rbp, %rcx
	movq	$-16777216, %rbp
	cmpq	$64, %rcx
	je	.LBB78_119
	movq	$-1, %rbp
	shlq	%cl, %rbp
	xorq	$-16777216, %rbp
.LBB78_119:
	testq	%rdi, %rbp
	jne	.LBB78_121
	movl	%eax, %ecx
	shlq	%cl, %rdi
	movl	$104, %edx
	movq	%rdi, %rsi
.LBB78_121:
	pxor	%xmm0, %xmm0
	testq	%rsi, %rsi
	je	.LBB78_50
	cmpl	$-149, %edx
	jl	.LBB78_50
	cmpl	$104, %edx
	jg	.LBB78_47
	movl	%edx, %eax
	shll	$23, %eax
	addl	$1258291200, %eax
	movl	%esi, %ecx
	andl	$8388607, %ecx
	xorl	%edi, %edi
	testl	$8388608, %esi
	cmovnel	%eax, %edi
	cmpl	$-149, %edx
	jmp	.LBB78_49
.LBB78_125:
	movd	12(%rsp), %xmm0
	js	.LBB78_128
	movq	544(%rsp), %rax
	movq	24(%rsp), %rcx
	cmpq	%rcx, %rax
	jbe	.LBB78_92
.LBB78_127:
	addl	$1, %r13d
	movd	%r13d, %xmm0
	jmp	.LBB78_50
.LBB78_92:
	jb	.LBB78_50
	leaq	(%rsp,%rax,8), %rdx
	addq	$544, %rdx
	shlq	$3, %rax
	negq	%rax
	leaq	(%rsp,%rcx,8), %rsi
	addq	$24, %rsi
	shlq	$3, %rcx
	negq	%rcx
	xorl	%edi, %edi
.LBB78_94:
	cmpq	%rdi, %rax
	je	.LBB78_129
	cmpq	%rdi, %rcx
	je	.LBB78_129
	movq	(%rdx,%rdi), %rbp
	movq	(%rsi,%rdi), %rbx
	cmpq	%rbx, %rbp
	ja	.LBB78_127
	addq	$-8, %rdi
	cmpq	%rbx, %rbp
	jae	.LBB78_94
	jmp	.LBB78_50
.LBB78_128:
	negl	%ebp
	leaq	544(%rsp), %rdi
	jmp	.LBB78_91
.LBB78_129:
	testb	$1, %r13b
	je	.LBB78_50
	jmp	.LBB78_127
.LBB78_130:
	xorl	%ebp, %ebp
	jmp	.LBB78_109
.LBB78_131:
	leaq	.Lanon.a2ebce93e36e790eb83c06650e1964fa.4(%rip), %rdi
	movl	$10, %edx
	callq	_ZN4core9panicking18panic_bounds_check17h620ba7e4e283471aE
	ud2
.Lfunc_end78:
	.size	_ZN12lexical_core4atof9algorithm7correct13pown_fallback17hcee1da2201574e58E, .Lfunc_end78-_ZN12lexical_core4atof9algorithm7correct13pown_fallback17hcee1da2201574e58E
	.cfi_endproc

	.section	.text.atof32_range,"ax",@progbits
	.globl	atof32_range
	.p2align	4, 0x90
	.type	atof32_range,@function
atof32_range:
.Lfunc_begin79:
	.cfi_startproc
	pushq	%rax
	.cfi_def_cfa_offset 16
	cmpq	%rsi, %rdi
	ja	.LBB79_3
	testq	%rdi, %rdi
	je	.LBB79_3
	testq	%rsi, %rsi
	je	.LBB79_3
	subq	%rdi, %rsi
	xorl	%edx, %edx
	popq	%rax
	.cfi_def_cfa_offset 8
	jmp	_ZN12lexical_core4atof3api4atof17h9f22be1cb8d21518E
.LBB79_3:
	.cfi_def_cfa_offset 16
	leaq	.Lanon.a8e4ed8328978708c0e7fc28f693712c.2(%rip), %rdi
	leaq	.Lanon.a8e4ed8328978708c0e7fc28f693712c.13(%rip), %rdx
	movl	$70, %esi
	callq	_ZN3std9panicking11begin_panic17hc53bd1a638d5bd8cE
	ud2
.Lfunc_end79:
	.size	atof32_range, .Lfunc_end79-atof32_range
	.cfi_endproc

	.section	.rodata.cst4,"aM",@progbits,4
	.p2align	2
.LCPI80_0:
	.long	2147483648
.LCPI80_1:
	.long	2143289344
.LCPI80_2:
	.long	2139095040
	.section	.rodata.cst16,"aM",@progbits,16
	.p2align	4
.LCPI80_3:
	.long	2147483648
	.long	2147483648
	.long	2147483648
	.long	2147483648
	.section	.text._ZN12lexical_core4atof3api4atof17h9f22be1cb8d21518E,"ax",@progbits
	.p2align	4, 0x90
	.type	_ZN12lexical_core4atof3api4atof17h9f22be1cb8d21518E,@function
_ZN12lexical_core4atof3api4atof17h9f22be1cb8d21518E:
.Lfunc_begin80:
	.cfi_startproc
	pushq	%rbp
	.cfi_def_cfa_offset 16
	pushq	%r15
	.cfi_def_cfa_offset 24
	pushq	%r14
	.cfi_def_cfa_offset 32
	pushq	%rbx
	.cfi_def_cfa_offset 40
	pushq	%rax
	.cfi_def_cfa_offset 48
	.cfi_offset %rbx, -40
	.cfi_offset %r14, -32
	.cfi_offset %r15, -24
	.cfi_offset %rbp, -16
	xorps	%xmm0, %xmm0
	testq	%rsi, %rsi
	je	.LBB80_5
	movb	(%rdi), %al
	cmpb	$45, %al
	je	.LBB80_6
	movb	$1, %r14b
	cmpb	$43, %al
	je	.LBB80_7
	xorl	%r15d, %r15d
	subq	%r15, %rsi
	jne	.LBB80_9
.LBB80_4:
	leaq	.Lanon.a8e4ed8328978708c0e7fc28f693712c.4(%rip), %rdi
	xorl	%esi, %esi
	xorl	%edx, %edx
	callq	_ZN4core9panicking18panic_bounds_check17h620ba7e4e283471aE
	ud2
.LBB80_5:
	xorl	%eax, %eax
	jmp	.LBB80_37
.LBB80_6:
	xorl	%r14d, %r14d
.LBB80_7:
	movl	$1, %r15d
	cmpq	$2, %rsi
	jb	.LBB80_13
	subq	%r15, %rsi
	je	.LBB80_4
.LBB80_9:
	addq	%r15, %rdi
	movb	(%rdi), %al
	movl	%eax, %ecx
	addb	$-46, %cl
	cmpb	$32, %cl
	ja	.LBB80_15
	movzbl	%cl, %eax
	leaq	.LJTI80_0(%rip), %rcx
	movslq	(%rcx,%rax,4), %rax
	addq	%rcx, %rax
	jmpq	*%rax
.LBB80_11:
	cmpq	$1, %rsi
	jne	.LBB80_31
	xorps	%xmm0, %xmm0
	xorl	%eax, %eax
	addq	%r15, %rax
	testb	%r14b, %r14b
	je	.LBB80_36
	jmp	.LBB80_37
.LBB80_13:
	xorl	%eax, %eax
	testb	%r14b, %r14b
	jne	.LBB80_37
	movss	.LCPI80_0(%rip), %xmm0
	jmp	.LBB80_37
.LBB80_15:
	cmpb	$105, %al
	je	.LBB80_43
	cmpb	$110, %al
	jne	.LBB80_31
	movq	_ZN12lexical_core4util6config10NAN_STRING17h51ff9acbf15e5699E(%rip), %rcx
	xorps	%xmm0, %xmm0
	xorl	%eax, %eax
	cmpq	%rsi, %rcx
	ja	.LBB80_35
	leaq	_ZN4core3num19ASCII_LOWERCASE_MAP17h88616eefcc9dd3afE(%rip), %rsi
	leaq	_ZN12lexical_core4util6config10NAN_STRING17h51ff9acbf15e5699E(%rip), %r8
	xorl	%edx, %edx
	.p2align	4, 0x90
.LBB80_19:
	cmpq	%rdx, %rcx
	je	.LBB80_49
	cmpq	%rdx, %rcx
	je	.LBB80_35
	movzbl	(%rdi,%rdx), %ebx
	movzbl	(%rbx,%rsi), %ebx
	movzbl	8(%rdx,%r8), %ebp
	addq	$1, %rdx
	cmpb	(%rbp,%rsi), %bl
	je	.LBB80_19
	jmp	.LBB80_35
.LBB80_22:
	movq	_ZN12lexical_core4util6config10NAN_STRING17h51ff9acbf15e5699E(%rip), %rcx
	xorps	%xmm0, %xmm0
	xorl	%eax, %eax
	cmpq	%rsi, %rcx
	ja	.LBB80_35
	leaq	_ZN4core3num19ASCII_LOWERCASE_MAP17h88616eefcc9dd3afE(%rip), %rsi
	leaq	_ZN12lexical_core4util6config10NAN_STRING17h51ff9acbf15e5699E(%rip), %r8
	xorl	%edx, %edx
	.p2align	4, 0x90
.LBB80_24:
	cmpq	%rdx, %rcx
	je	.LBB80_49
	cmpq	%rdx, %rcx
	je	.LBB80_35
	movzbl	(%rdi,%rdx), %ebx
	movzbl	(%rbx,%rsi), %ebx
	movzbl	8(%rdx,%r8), %ebp
	addq	$1, %rdx
	cmpb	(%rbp,%rsi), %bl
	je	.LBB80_24
	jmp	.LBB80_35
.LBB80_27:
	xorps	%xmm0, %xmm0
	cmpq	$1, %rsi
	je	.LBB80_48
	cmpq	$3, %rsi
	jne	.LBB80_31
	movl	$3, %eax
	leaq	.Lanon.4ad8ee50b6a2ced61e0d449a3a817c0d.0(%rip), %rcx
	cmpq	%rcx, %rdi
	je	.LBB80_35
	movzwl	(%rdi), %ecx
	xorl	$11824, %ecx
	movzbl	2(%rdi), %ebp
	xorl	$48, %ebp
	orw	%cx, %bp
	je	.LBB80_35
.LBB80_31:
	testb	%dl, %dl
	je	.LBB80_33
	movl	$1, %edx
	jmp	.LBB80_34
.LBB80_33:
	xorl	%edx, %edx
.LBB80_34:
	callq	_ZN12lexical_core4atof9algorithm7correct9to_native17h3b4ea061198d90ddE
.LBB80_35:
	addq	%r15, %rax
	testb	%r14b, %r14b
	jne	.LBB80_37
.LBB80_36:
	xorps	.LCPI80_3(%rip), %xmm0
.LBB80_37:
	addq	$8, %rsp
	.cfi_def_cfa_offset 40
	popq	%rbx
	.cfi_def_cfa_offset 32
	popq	%r14
	.cfi_def_cfa_offset 24
	popq	%r15
	.cfi_def_cfa_offset 16
	popq	%rbp
	.cfi_def_cfa_offset 8
	retq
.LBB80_38:
	.cfi_def_cfa_offset 48
	movq	_ZN12lexical_core4util6config15INFINITY_STRING17hc320a1f3bc302f3dE(%rip), %rax
	cmpq	%rsi, %rax
	ja	.LBB80_52
	xorl	%ecx, %ecx
	leaq	_ZN4core3num19ASCII_LOWERCASE_MAP17h88616eefcc9dd3afE(%rip), %rdx
	leaq	_ZN12lexical_core4util6config15INFINITY_STRING17hc320a1f3bc302f3dE(%rip), %r8
	.p2align	4, 0x90
.LBB80_40:
	cmpq	%rcx, %rax
	je	.LBB80_51
	cmpq	%rcx, %rax
	je	.LBB80_52
	movzbl	(%rdi,%rcx), %ebx
	movzbl	(%rbx,%rdx), %ebx
	movzbl	8(%rcx,%r8), %ebp
	addq	$1, %rcx
	cmpb	(%rbp,%rdx), %bl
	je	.LBB80_40
	jmp	.LBB80_52
.LBB80_43:
	movq	_ZN12lexical_core4util6config15INFINITY_STRING17hc320a1f3bc302f3dE(%rip), %rax
	cmpq	%rsi, %rax
	ja	.LBB80_60
	xorl	%ecx, %ecx
	leaq	_ZN4core3num19ASCII_LOWERCASE_MAP17h88616eefcc9dd3afE(%rip), %rdx
	leaq	_ZN12lexical_core4util6config15INFINITY_STRING17hc320a1f3bc302f3dE(%rip), %r8
	.p2align	4, 0x90
.LBB80_45:
	cmpq	%rcx, %rax
	je	.LBB80_59
	cmpq	%rcx, %rax
	je	.LBB80_60
	movzbl	(%rdi,%rcx), %ebp
	movzbl	(%rbp,%rdx), %ebx
	movzbl	8(%rcx,%r8), %ebp
	addq	$1, %rcx
	cmpb	(%rbp,%rdx), %bl
	je	.LBB80_45
	jmp	.LBB80_60
.LBB80_48:
	movl	$1, %eax
	addq	%r15, %rax
	testb	%r14b, %r14b
	je	.LBB80_36
	jmp	.LBB80_37
.LBB80_49:
	xorl	%eax, %eax
	cmpq	%rdx, %rcx
	cmoveq	%rcx, %rax
	jne	.LBB80_67
	movss	.LCPI80_1(%rip), %xmm0
	addq	%r15, %rax
	testb	%r14b, %r14b
	je	.LBB80_36
	jmp	.LBB80_37
.LBB80_51:
	je	.LBB80_58
.LBB80_52:
	movq	_ZN12lexical_core4util6config10INF_STRING17h27f46d0080bd297dE(%rip), %rcx
	xorps	%xmm0, %xmm0
	xorl	%eax, %eax
	cmpq	%rsi, %rcx
	ja	.LBB80_35
	leaq	_ZN4core3num19ASCII_LOWERCASE_MAP17h88616eefcc9dd3afE(%rip), %rsi
	leaq	_ZN12lexical_core4util6config10INF_STRING17h27f46d0080bd297dE(%rip), %r8
	xorl	%edx, %edx
	.p2align	4, 0x90
.LBB80_54:
	cmpq	%rdx, %rcx
	je	.LBB80_57
	cmpq	%rdx, %rcx
	je	.LBB80_35
	movzbl	(%rdi,%rdx), %ebx
	movzbl	(%rbx,%rsi), %ebx
	movzbl	8(%rdx,%r8), %ebp
	addq	$1, %rdx
	cmpb	(%rbp,%rsi), %bl
	je	.LBB80_54
	jmp	.LBB80_35
.LBB80_59:
	je	.LBB80_58
.LBB80_60:
	movq	_ZN12lexical_core4util6config10INF_STRING17h27f46d0080bd297dE(%rip), %rcx
	xorps	%xmm0, %xmm0
	xorl	%eax, %eax
	cmpq	%rsi, %rcx
	ja	.LBB80_35
	leaq	_ZN4core3num19ASCII_LOWERCASE_MAP17h88616eefcc9dd3afE(%rip), %rsi
	leaq	_ZN12lexical_core4util6config10INF_STRING17h27f46d0080bd297dE(%rip), %r8
	xorl	%edx, %edx
	.p2align	4, 0x90
.LBB80_62:
	cmpq	%rdx, %rcx
	je	.LBB80_57
	cmpq	%rdx, %rcx
	je	.LBB80_35
	movzbl	(%rdi,%rdx), %ebx
	movzbl	(%rbx,%rsi), %ebx
	movzbl	8(%rdx,%r8), %ebp
	addq	$1, %rdx
	cmpb	(%rbp,%rsi), %bl
	je	.LBB80_62
	jmp	.LBB80_35
.LBB80_57:
	xorl	%eax, %eax
	cmpq	%rdx, %rcx
	cmoveq	%rcx, %rax
	je	.LBB80_58
.LBB80_67:
	xorps	%xmm0, %xmm0
	addq	%r15, %rax
	testb	%r14b, %r14b
	je	.LBB80_36
	jmp	.LBB80_37
.LBB80_58:
	movss	.LCPI80_2(%rip), %xmm0
	addq	%r15, %rax
	testb	%r14b, %r14b
	je	.LBB80_36
	jmp	.LBB80_37
.Lfunc_end80:
	.size	_ZN12lexical_core4atof3api4atof17h9f22be1cb8d21518E, .Lfunc_end80-_ZN12lexical_core4atof3api4atof17h9f22be1cb8d21518E
	.cfi_endproc
	.section	.rodata._ZN12lexical_core4atof3api4atof17h9f22be1cb8d21518E,"a",@progbits
	.p2align	2
.LJTI80_0:
	.long	.LBB80_11-.LJTI80_0
	.long	.LBB80_31-.LJTI80_0
	.long	.LBB80_27-.LJTI80_0
	.long	.LBB80_31-.LJTI80_0
	.long	.LBB80_31-.LJTI80_0
	.long	.LBB80_31-.LJTI80_0
	.long	.LBB80_31-.LJTI80_0
	.long	.LBB80_31-.LJTI80_0
	.long	.LBB80_31-.LJTI80_0
	.long	.LBB80_31-.LJTI80_0
	.long	.LBB80_31-.LJTI80_0
	.long	.LBB80_31-.LJTI80_0
	.long	.LBB80_31-.LJTI80_0
	.long	.LBB80_31-.LJTI80_0
	.long	.LBB80_31-.LJTI80_0
	.long	.LBB80_31-.LJTI80_0
	.long	.LBB80_31-.LJTI80_0
	.long	.LBB80_31-.LJTI80_0
	.long	.LBB80_31-.LJTI80_0
	.long	.LBB80_31-.LJTI80_0
	.long	.LBB80_31-.LJTI80_0
	.long	.LBB80_31-.LJTI80_0
	.long	.LBB80_31-.LJTI80_0
	.long	.LBB80_31-.LJTI80_0
	.long	.LBB80_31-.LJTI80_0
	.long	.LBB80_31-.LJTI80_0
	.long	.LBB80_31-.LJTI80_0
	.long	.LBB80_38-.LJTI80_0
	.long	.LBB80_31-.LJTI80_0
	.long	.LBB80_31-.LJTI80_0
	.long	.LBB80_31-.LJTI80_0
	.long	.LBB80_31-.LJTI80_0
	.long	.LBB80_22-.LJTI80_0

	.section	.rodata.cst4,"aM",@progbits,4
	.p2align	2
.LCPI81_0:
	.long	1343554297
	.section	.text._ZN12lexical_core4atof9algorithm7correct9to_native17h3b4ea061198d90ddE,"ax",@progbits
	.p2align	4, 0x90
	.type	_ZN12lexical_core4atof9algorithm7correct9to_native17h3b4ea061198d90ddE,@function
_ZN12lexical_core4atof9algorithm7correct9to_native17h3b4ea061198d90ddE:
.Lfunc_begin81:
	.cfi_startproc
	pushq	%rbp
	.cfi_def_cfa_offset 16
	pushq	%r15
	.cfi_def_cfa_offset 24
	pushq	%r14
	.cfi_def_cfa_offset 32
	pushq	%r13
	.cfi_def_cfa_offset 40
	pushq	%r12
	.cfi_def_cfa_offset 48
	pushq	%rbx
	.cfi_def_cfa_offset 56
	subq	$152, %rsp
	.cfi_def_cfa_offset 208
	.cfi_offset %rbx, -56
	.cfi_offset %r12, -48
	.cfi_offset %r13, -40
	.cfi_offset %r14, -32
	.cfi_offset %r15, -24
	.cfi_offset %rbp, -16
	movl	%edx, %r15d
	movq	%rsi, %rbp
	movq	%rdi, %rsi
	leaq	32(%rsp), %r14
	movq	%r14, %rdi
	movq	%rbp, %rdx
	callq	_ZN12lexical_core4atof9algorithm7correct11parse_float17hde0e656b845361f8E
	movq	32(%rsp), %r8
	movq	56(%rsp), %rax
	movq	%rax, 144(%rsp)
	movups	40(%rsp), %xmm0
	movaps	%xmm0, 128(%rsp)
	movq	64(%rsp), %r10
	movq	72(%rsp), %r13
	movq	80(%rsp), %rax
	movl	88(%rsp), %edi
	movl	92(%rsp), %r12d
	movq	96(%rsp), %rsi
	movq	104(%rsp), %r11
	movq	%r10, %rcx
	subq	%rax, %rcx
	jbe	.LBB81_4
	cmpq	$2147483647, %rcx
	movl	$2147483647, %edx
	cmovbl	%ecx, %edx
	movl	%edi, %r9d
	subl	%edx, %r9d
	seto	%bl
	sarl	$31, %edx
	addl	$-2147483648, %edx
	testb	%bl, %bl
	cmovnel	%edx, %r9d
	testq	%r8, %r8
	je	.LBB81_6
.LBB81_2:
	cmpl	$1073741825, %r9d
	jl	.LBB81_5
	movl	$2139095040, 8(%rsp)
	jmp	.LBB81_7
.LBB81_4:
	movq	%rax, %rcx
	subq	%r10, %rcx
	cmpq	$2147483647, %rcx
	movl	$2147483647, %edx
	cmovbl	%ecx, %edx
	movl	%edi, %r9d
	addl	%edx, %r9d
	seto	%bl
	shrl	$31, %edx
	addl	$2147483647, %edx
	testb	%bl, %bl
	cmovnel	%edx, %r9d
	testq	%r8, %r8
	jne	.LBB81_2
	jmp	.LBB81_6
.LBB81_5:
	cmpl	$-1073741825, %r9d
	jg	.LBB81_9
.LBB81_6:
	movl	$0, 8(%rsp)
.LBB81_7:
	movq	%rsi, 16(%rsp)
	movq	%r11, 24(%rsp)
.LBB81_8:
	movss	8(%rsp), %xmm0
	subq	24(%rsp), %rbp
	movq	%rbp, %rax
	addq	$152, %rsp
	.cfi_def_cfa_offset 56
	popq	%rbx
	.cfi_def_cfa_offset 48
	popq	%r12
	.cfi_def_cfa_offset 40
	popq	%r13
	.cfi_def_cfa_offset 32
	popq	%r14
	.cfi_def_cfa_offset 24
	popq	%r15
	.cfi_def_cfa_offset 16
	popq	%rbp
	.cfi_def_cfa_offset 8
	retq
.LBB81_9:
	.cfi_def_cfa_offset 208
	testq	%rax, %rax
	je	.LBB81_11
	movq	144(%rsp), %rcx
	movq	%rcx, 48(%rsp)
	movaps	128(%rsp), %xmm0
	movaps	%xmm0, 32(%rsp)
	movq	%r10, 56(%rsp)
	movq	%r13, 64(%rsp)
	movq	%rax, 72(%rsp)
	jmp	.LBB81_13
.LBB81_11:
	cmpq	$16777215, %r8
	jbe	.LBB81_14
.LBB81_12:
	movq	144(%rsp), %rax
	movq	%rax, 48(%rsp)
	movaps	128(%rsp), %xmm0
	movaps	%xmm0, 32(%rsp)
	movq	%r10, 56(%rsp)
	movq	%r13, 64(%rsp)
	movq	$0, 72(%rsp)
.LBB81_13:
	movl	%edi, 80(%rsp)
	movl	%r12d, 84(%rsp)
	movq	%r14, (%rsp)
	movzbl	%r15b, %ecx
	leaq	8(%rsp), %rdi
	movq	%r11, %rdx
	callq	_ZN12lexical_core4atof9algorithm7correct13pown_fallback17hcee1da2201574e58E
	jmp	.LBB81_8
.LBB81_14:
	testl	%r9d, %r9d
	je	.LBB81_18
	leal	10(%r9), %eax
	cmpl	$20, %eax
	ja	.LBB81_20
	testq	%r8, %r8
	js	.LBB81_27
	xorps	%xmm0, %xmm0
	cvtsi2ssq	%r8, %xmm0
	testl	%r9d, %r9d
	jle	.LBB81_29
.LBB81_28:
	movslq	%r9d, %rax
	leaq	.Lanon.a8e4ed8328978708c0e7fc28f693712c.8(%rip), %rcx
	mulss	(%rcx,%rax,4), %xmm0
	jmp	.LBB81_33
.LBB81_18:
	testq	%r8, %r8
	js	.LBB81_26
	xorps	%xmm0, %xmm0
	cvtsi2ssq	%r8, %xmm0
	jmp	.LBB81_33
.LBB81_20:
	cmpl	$17, %r9d
	ja	.LBB81_12
	leal	-10(%r9), %eax
	movslq	%eax, %rcx
	cmpl	$19, %ecx
	ja	.LBB81_34
	leaq	anon.c3ad055338a366c33e23e2dd169a30a8.3.llvm.6003641991083973417(%rip), %rdx
	movq	%r8, %rax
	mulq	(%rdx,%rcx,8)
	jo	.LBB81_12
	cmpq	$16777215, %rax
	ja	.LBB81_12
	testq	%rax, %rax
	js	.LBB81_31
	xorps	%xmm0, %xmm0
	cvtsi2ssq	%rax, %xmm0
	jmp	.LBB81_32
.LBB81_26:
	movq	%r8, %rax
	shrq	%rax
	andl	$1, %r8d
	orq	%rax, %r8
	xorps	%xmm0, %xmm0
	cvtsi2ssq	%r8, %xmm0
	addss	%xmm0, %xmm0
	jmp	.LBB81_33
.LBB81_27:
	movq	%r8, %rax
	shrq	%rax
	andl	$1, %r8d
	orq	%rax, %r8
	xorps	%xmm0, %xmm0
	cvtsi2ssq	%r8, %xmm0
	addss	%xmm0, %xmm0
	testl	%r9d, %r9d
	jg	.LBB81_28
.LBB81_29:
	negl	%r9d
	movslq	%r9d, %rax
	cmpl	$11, %eax
	jae	.LBB81_35
	leaq	.Lanon.a8e4ed8328978708c0e7fc28f693712c.8(%rip), %rcx
	divss	(%rcx,%rax,4), %xmm0
	jmp	.LBB81_33
.LBB81_31:
	movq	%rax, %rcx
	shrq	%rcx
	andl	$1, %eax
	orq	%rcx, %rax
	xorps	%xmm0, %xmm0
	cvtsi2ssq	%rax, %xmm0
	addss	%xmm0, %xmm0
.LBB81_32:
	mulss	.LCPI81_0(%rip), %xmm0
.LBB81_33:
	movss	%xmm0, 8(%rsp)
	jmp	.LBB81_7
.LBB81_34:
	leaq	.Lanon.a8e4ed8328978708c0e7fc28f693712c.5(%rip), %rdi
	movl	$20, %edx
	movq	%rcx, %rsi
	callq	_ZN4core9panicking18panic_bounds_check17h620ba7e4e283471aE
	ud2
.LBB81_35:
	leaq	.Lanon.a8e4ed8328978708c0e7fc28f693712c.9(%rip), %rdi
	movl	$11, %edx
	movq	%rax, %rsi
	callq	_ZN4core9panicking18panic_bounds_check17h620ba7e4e283471aE
	ud2
.Lfunc_end81:
	.size	_ZN12lexical_core4atof9algorithm7correct9to_native17h3b4ea061198d90ddE, .Lfunc_end81-_ZN12lexical_core4atof9algorithm7correct9to_native17h3b4ea061198d90ddE
	.cfi_endproc

	.section	.text._ZN12lexical_core4atof9algorithm7correct11parse_float17hde0e656b845361f8E,"ax",@progbits
	.p2align	4, 0x90
	.type	_ZN12lexical_core4atof9algorithm7correct11parse_float17hde0e656b845361f8E,@function
_ZN12lexical_core4atof9algorithm7correct11parse_float17hde0e656b845361f8E:
.Lfunc_begin82:
	.cfi_startproc
	pushq	%rbp
	.cfi_def_cfa_offset 16
	pushq	%r15
	.cfi_def_cfa_offset 24
	pushq	%r14
	.cfi_def_cfa_offset 32
	pushq	%r13
	.cfi_def_cfa_offset 40
	pushq	%r12
	.cfi_def_cfa_offset 48
	pushq	%rbx
	.cfi_def_cfa_offset 56
	subq	$72, %rsp
	.cfi_def_cfa_offset 128
	.cfi_offset %rbx, -56
	.cfi_offset %r12, -48
	.cfi_offset %r13, -40
	.cfi_offset %r14, -32
	.cfi_offset %r15, -24
	.cfi_offset %rbp, -16
	movq	%rdx, %r10
	movq	%rsi, %r11
	movq	%rdi, %rbx
	leaq	(%rsi,%rdx), %r12
	xorl	%r9d, %r9d
	cmpq	$4, %rdx
	jb	.LBB82_7
	.p2align	4, 0x90
.LBB82_1:
	cmpb	$48, (%r11,%r9)
	jne	.LBB82_14
	leaq	(%r11,%r9), %rax
	cmpb	$48, 1(%rax)
	jne	.LBB82_11
	cmpb	$48, 2(%rax)
	jne	.LBB82_12
	cmpb	$48, 3(%rax)
	jne	.LBB82_13
	addq	$4, %rax
	addq	$4, %r9
	movq	%r12, %rcx
	subq	%rax, %rcx
	cmpq	$3, %rcx
	ja	.LBB82_1
	leaq	(%r11,%r9), %rax
	cmpq	%r12, %rax
	jne	.LBB82_8
	jmp	.LBB82_14
.LBB82_7:
	movq	%r11, %rax
	cmpq	%r12, %rax
	je	.LBB82_14
.LBB82_8:
	leaq	(%r11,%r10), %rcx
	.p2align	4, 0x90
.LBB82_9:
	cmpb	$48, (%rax)
	jne	.LBB82_14
	addq	$1, %rax
	addq	$1, %r9
	cmpq	%rax, %rcx
	jne	.LBB82_9
	jmp	.LBB82_14
.LBB82_11:
	addq	$1, %r9
	jmp	.LBB82_14
.LBB82_12:
	addq	$2, %r9
	jmp	.LBB82_14
.LBB82_13:
	addq	$3, %r9
.LBB82_14:
	leaq	(%r11,%r9), %r14
	movq	%r10, %rsi
	subq	%r9, %rsi
	movq	%rbx, 32(%rsp)
	jne	.LBB82_26
	xorl	%r8d, %r8d
	movq	%r12, %r13
	movq	%r12, %r15
	movq	%rsi, %rdi
	xorl	%eax, %eax
	movq	%rax, 8(%rsp)
	subq	%rdi, %rsi
	je	.LBB82_36
.LBB82_16:
	cmpb	$46, (%r15)
	jne	.LBB82_36
	leaq	1(%r15), %r13
	leaq	-1(%rsi), %rbx
	testq	%r8, %r8
	je	.LBB82_37
	movq	%r12, %rax
	subq	%r13, %rax
	cmpq	$4, %rax
	jb	.LBB82_48
	movl	$1, %r9d
	leaq	.Lanon.a8e4ed8328978708c0e7fc28f693712c.3(%rip), %rax
	.p2align	4, 0x90
.LBB82_20:
	movzbl	(%r15,%r9), %ecx
	cmpb	$9, (%rcx,%rax)
	ja	.LBB82_65
	leaq	(%r15,%r9), %rcx
	movzbl	1(%rcx), %edx
	cmpb	$9, (%rdx,%rax)
	ja	.LBB82_68
	movzbl	2(%rcx), %edx
	cmpb	$10, (%rdx,%rax)
	jae	.LBB82_66
	movzbl	3(%rcx), %edx
	cmpb	$9, (%rdx,%rax)
	ja	.LBB82_67
	addq	$4, %rcx
	movq	%r12, %rdx
	subq	%rcx, %rdx
	addq	$4, %r9
	cmpq	$3, %rdx
	ja	.LBB82_20
	addq	%r9, %r15
	addq	$-1, %r9
	cmpq	%r12, %r15
	jne	.LBB82_49
	jmp	.LBB82_68
.LBB82_26:
	leaq	.Lanon.a8e4ed8328978708c0e7fc28f693712c.3(%rip), %r13
	movl	$10, %r15d
	xorl	%eax, %eax
	movq	%rax, 8(%rsp)
	xorl	%ecx, %ecx
	xorl	%r8d, %r8d
	.p2align	4, 0x90
.LBB82_27:
	movq	%rcx, %rdi
	movzbl	(%r14,%rcx), %eax
	movzbl	(%rax,%r13), %ebx
	cmpq	$9, %rbx
	ja	.LBB82_34
	leaq	1(%rdi), %rcx
	testq	%r8, %r8
	je	.LBB82_30
	cmpq	%rcx, %rsi
	jne	.LBB82_27
	jmp	.LBB82_33
	.p2align	4, 0x90
.LBB82_30:
	addq	%r14, %rdi
	movq	8(%rsp), %rbp
	movq	%rbp, %rax
	mulq	%r15
	jo	.LBB82_32
	addq	%rbx, %rax
	cmovaeq	%rax, %rbp
	movq	%rbp, 8(%rsp)
	movl	$0, %eax
	cmovaeq	%rax, %rdi
.LBB82_32:
	movq	%rdi, %r8
	cmpq	%rcx, %rsi
	jne	.LBB82_27
.LBB82_33:
	movq	%r12, %r13
	movq	%r12, %r15
	movq	%rsi, %rdi
	movq	32(%rsp), %rbx
	subq	%rdi, %rsi
	jne	.LBB82_16
	jmp	.LBB82_36
.LBB82_34:
	cmpq	%rdi, %rsi
	movq	32(%rsp), %rbx
	jb	.LBB82_120
	leaq	(%r14,%rdi), %r13
	movq	%r13, %r15
	subq	%rdi, %rsi
	jne	.LBB82_16
.LBB82_36:
	movq	%r13, %r11
	subq	%r8, %r11
	testq	%r8, %r8
	cmoveq	%r8, %r11
	xorl	%r10d, %r10d
	xorl	%r9d, %r9d
	xorl	%ebp, %ebp
	cmpq	$2, %rsi
	jae	.LBB82_77
	jmp	.LBB82_118
.LBB82_37:
	cmpq	$0, 8(%rsp)
	movq	%r13, 24(%rsp)
	je	.LBB82_52
	xorl	%r10d, %r10d
	testq	%rbx, %rbx
	je	.LBB82_75
.LBB82_39:
	movq	%r10, %r15
	xorl	%r10d, %r10d
	leaq	.Lanon.a8e4ed8328978708c0e7fc28f693712c.3(%rip), %rbp
	movl	$10, %r11d
	xorl	%ecx, %ecx
	xorl	%r8d, %r8d
	.p2align	4, 0x90
.LBB82_40:
	movq	%rcx, %r9
	movzbl	(%r13,%rcx), %eax
	movzbl	(%rax,%rbp), %esi
	cmpq	$9, %rsi
	ja	.LBB82_47
	leaq	1(%r9), %rcx
	testq	%r8, %r8
	je	.LBB82_43
	cmpq	%rcx, %rbx
	jne	.LBB82_40
	jmp	.LBB82_46
	.p2align	4, 0x90
.LBB82_43:
	movq	%rbx, %r12
	addq	%r13, %r9
	movq	8(%rsp), %rbx
	movq	%rbx, %rax
	mulq	%r11
	jo	.LBB82_45
	addq	%rsi, %rax
	cmovaeq	%rax, %rbx
	movq	%rbx, 8(%rsp)
	cmovaeq	%r10, %r9
.LBB82_45:
	movq	%r9, %r8
	movq	%r12, %rbx
	cmpq	%rcx, %rbx
	jne	.LBB82_40
.LBB82_46:
	movq	%rbx, %r9
.LBB82_47:
	movq	%r15, %r10
	movq	%rbx, %rsi
	subq	%r9, %rsi
	jae	.LBB82_76
	jmp	.LBB82_119
.LBB82_48:
	xorl	%r9d, %r9d
	movq	%r13, %r15
	cmpq	%r12, %r15
	je	.LBB82_68
.LBB82_49:
	addq	%r10, %r11
	leaq	.Lanon.a8e4ed8328978708c0e7fc28f693712c.3(%rip), %rax
	.p2align	4, 0x90
.LBB82_50:
	movzbl	(%r15), %ecx
	cmpb	$9, (%rcx,%rax)
	ja	.LBB82_68
	addq	$1, %r15
	addq	$1, %r9
	cmpq	%r15, %r11
	jne	.LBB82_50
	jmp	.LBB82_68
.LBB82_52:
	addq	%r15, %rsi
	cmpq	$4, %rbx
	jb	.LBB82_60
	movl	$1, %edx
.LBB82_54:
	cmpb	$48, (%r15,%rdx)
	jne	.LBB82_70
	movq	%rdx, %rbp
	leaq	(%r15,%rdx), %rax
	cmpb	$48, 1(%rax)
	jne	.LBB82_72
	cmpb	$48, 2(%rax)
	jne	.LBB82_73
	cmpb	$48, 3(%rax)
	jne	.LBB82_74
	addq	$4, %rax
	movq	%rsi, %rcx
	subq	%rax, %rcx
	movq	%rbp, %rdx
	addq	$4, %rdx
	cmpq	$3, %rcx
	ja	.LBB82_54
	leaq	(%r15,%rdx), %rax
	addq	$-1, %rdx
	cmpq	%rsi, %rax
	jne	.LBB82_61
	jmp	.LBB82_71
.LBB82_60:
	xorl	%edx, %edx
	movq	%r13, %rax
	cmpq	%rsi, %rax
	je	.LBB82_71
.LBB82_61:
	subq	%rax, %r10
	subq	%r9, %r10
	subq	%rdi, %r10
	addq	%r10, %r15
	xorl	%ecx, %ecx
	movq	%rdx, %r10
	.p2align	4, 0x90
.LBB82_62:
	cmpb	$48, (%rax,%rcx)
	jne	.LBB82_64
	addq	$1, %rcx
	cmpq	%rcx, %r15
	jne	.LBB82_62
.LBB82_64:
	addq	%rcx, %r10
	addq	%r10, %r13
	subq	%r10, %rbx
	testq	%rbx, %rbx
	jne	.LBB82_39
.LBB82_75:
	xorl	%r8d, %r8d
	xorl	%r9d, %r9d
	movq	%rbx, %rsi
	subq	%r9, %rsi
	jb	.LBB82_119
.LBB82_76:
	addq	%r9, %r13
	addq	%r10, %r9
	movq	%r13, %r11
	subq	%r8, %r11
	testq	%r8, %r8
	cmoveq	%r8, %r11
	movq	24(%rsp), %r15
	movq	32(%rsp), %rbx
	xorl	%ebp, %ebp
	cmpq	$2, %rsi
	jb	.LBB82_118
	jmp	.LBB82_77
.LBB82_65:
	addq	$-1, %r9
	movq	%rbx, %rsi
	subq	%r9, %rsi
	jae	.LBB82_69
.LBB82_119:
	movq	%r9, %rdi
	movq	%rbx, %rsi
	callq	_ZN4core5slice22slice_index_order_fail17h0e662b493ebc9fb3E
	ud2
.LBB82_66:
	addq	$1, %r9
	movq	%rbx, %rsi
	subq	%r9, %rsi
	jae	.LBB82_69
	jmp	.LBB82_119
.LBB82_67:
	addq	$2, %r9
.LBB82_68:
	movq	%rbx, %rsi
	subq	%r9, %rsi
	jb	.LBB82_119
.LBB82_69:
	movq	%r13, %r15
	addq	%r9, %r13
	movq	%r8, %r11
	notq	%r11
	addq	%r13, %r11
	xorl	%r10d, %r10d
	movq	32(%rsp), %rbx
	xorl	%ebp, %ebp
	cmpq	$2, %rsi
	jb	.LBB82_118
.LBB82_77:
	movzbl	(%r13), %eax
	movzbl	EXPONENT_DEFAULT_CHAR(%rip), %ecx
	leaq	_ZN4core3num19ASCII_LOWERCASE_MAP17h88616eefcc9dd3afE(%rip), %rdx
	movb	(%rax,%rdx), %al
	cmpb	(%rcx,%rdx), %al
	jne	.LBB82_118
	leaq	1(%r13), %rcx
	leaq	-1(%rsi), %rax
	movq	%rax, 24(%rsp)
	movb	1(%r13), %al
	cmpb	$45, %al
	movq	%rcx, 64(%rsp)
	je	.LBB82_81
	movb	$1, %dl
	movl	%edx, 20(%rsp)
	cmpb	$43, %al
	je	.LBB82_82
	xorl	%edx, %edx
	movq	24(%rsp), %rax
	jmp	.LBB82_83
.LBB82_81:
	movl	$0, 20(%rsp)
.LBB82_82:
	movq	24(%rsp), %rax
	movl	$1, %edx
	cmpq	$2, %rax
	jb	.LBB82_91
.LBB82_83:
	movq	%rax, %r12
	subq	%rdx, %r12
	addq	%r13, %rsi
	cmpq	$4, %r12
	movq	%rdx, 40(%rsp)
	jb	.LBB82_92
	leaq	(%rdx,%r13), %rax
	addq	$1, %rax
	xorl	%edx, %edx
	.p2align	4, 0x90
.LBB82_85:
	cmpb	$48, (%rax,%rdx)
	jne	.LBB82_98
	leaq	(%rax,%rdx), %rcx
	cmpb	$48, 1(%rcx)
	jne	.LBB82_95
	cmpb	$48, 2(%rcx)
	jne	.LBB82_96
	cmpb	$48, 3(%rcx)
	jne	.LBB82_97
	addq	$4, %rcx
	addq	$4, %rdx
	movq	%rsi, %rbp
	subq	%rcx, %rbp
	cmpq	$3, %rbp
	ja	.LBB82_85
	movq	40(%rsp), %rax
	addq	%r13, %rax
	addq	%rdx, %rax
	addq	$1, %rax
	cmpq	%rsi, %rax
	jne	.LBB82_93
	jmp	.LBB82_98
.LBB82_91:
	xorl	%ebp, %ebp
	xorl	%edx, %edx
	jmp	.LBB82_117
.LBB82_92:
	leaq	(%rcx,%rdx), %rax
	xorl	%edx, %edx
	cmpq	%rsi, %rax
	je	.LBB82_98
	.p2align	4, 0x90
.LBB82_93:
	cmpb	$48, (%rax)
	jne	.LBB82_98
	addq	$1, %rax
	addq	$1, %rdx
	cmpq	%rax, %rsi
	jne	.LBB82_93
	jmp	.LBB82_98
.LBB82_95:
	addq	$1, %rdx
	jmp	.LBB82_98
.LBB82_96:
	addq	$2, %rdx
	jmp	.LBB82_98
.LBB82_97:
	addq	$3, %rdx
.LBB82_98:
	movq	%r11, 56(%rsp)
	subq	%rdx, %r12
	cmpb	$0, 20(%rsp)
	movq	%r12, %r11
	je	.LBB82_106
	testq	%r12, %r12
	je	.LBB82_113
	movq	%r10, 48(%rsp)
	movq	40(%rsp), %rax
	leaq	(%rdx,%rax), %rax
	leaq	(%rax,%r13), %r10
	addq	$1, %r10
	xorl	%esi, %esi
	xorl	%ebx, %ebx
	xorl	%ebp, %ebp
	.p2align	4, 0x90
.LBB82_101:
	movzbl	(%r10,%rbx), %eax
	leaq	.Lanon.a8e4ed8328978708c0e7fc28f693712c.3(%rip), %rcx
	movzbl	(%rax,%rcx), %eax
	cmpl	$9, %eax
	ja	.LBB82_114
	leaq	(%r10,%rbx), %r13
	imull	$10, %esi, %ecx
	addl	%eax, %ecx
	movq	%r13, %r12
	jo	.LBB82_104
	movq	%rbp, %r12
.LBB82_104:
	imull	$10, %esi, %eax
	cmovoq	%r13, %r12
	addq	$1, %rbx
	testq	%rbp, %rbp
	cmoveq	%r12, %rbp
	movl	%ecx, %esi
	cmpq	%rbx, %r11
	jne	.LBB82_101
	movq	%r11, %rax
	movl	%ecx, %esi
	movq	%r11, %rbx
.LBB82_114:
	movq	48(%rsp), %r10
	jmp	.LBB82_115
.LBB82_106:
	testq	%r12, %r12
	je	.LBB82_113
	movq	40(%rsp), %rax
	leaq	(%rdx,%rax), %rax
	leaq	(%rax,%r13), %r12
	addq	$1, %r12
	xorl	%esi, %esi
	xorl	%ebx, %ebx
	xorl	%ebp, %ebp
	.p2align	4, 0x90
.LBB82_108:
	movzbl	(%r12,%rbx), %eax
	leaq	.Lanon.a8e4ed8328978708c0e7fc28f693712c.3(%rip), %rcx
	movzbl	(%rax,%rcx), %eax
	cmpl	$9, %eax
	ja	.LBB82_115
	leaq	(%r12,%rbx), %r13
	imull	$10, %esi, %ecx
	subl	%eax, %ecx
	movq	%r13, %rax
	jo	.LBB82_111
	movq	%rbp, %rax
.LBB82_111:
	imull	$10, %esi, %esi
	cmovoq	%r13, %rax
	addq	$1, %rbx
	testq	%rbp, %rbp
	cmoveq	%rax, %rbp
	movl	%ecx, %esi
	cmpq	%rbx, %r11
	jne	.LBB82_108
	movl	%ecx, %esi
	movq	%r11, %rbx
	jmp	.LBB82_115
.LBB82_113:
	xorl	%esi, %esi
	xorl	%ebx, %ebx
	xorl	%ebp, %ebp
.LBB82_115:
	addq	40(%rsp), %rdx
	addq	%rbx, %rdx
	xorl	%eax, %eax
	cmpb	$0, 20(%rsp)
	sete	%al
	testq	%rbp, %rbp
	leal	2147483647(%rax,%rax), %ebp
	cmovel	%esi, %ebp
	movq	24(%rsp), %rax
	cmpq	%rdx, %rax
	movq	56(%rsp), %r11
	jb	.LBB82_121
	movq	32(%rsp), %rbx
.LBB82_117:
	movq	64(%rsp), %r13
	addq	%rdx, %r13
	subq	%rdx, %rax
	movq	%rax, %rsi
.LBB82_118:
	movq	8(%rsp), %rax
	movq	%rax, (%rbx)
	movq	%r14, 8(%rbx)
	movq	%rdi, 16(%rbx)
	movq	%r15, 24(%rbx)
	movq	%r9, 32(%rbx)
	movq	%r10, 40(%rbx)
	movq	%r11, 48(%rbx)
	movl	%ebp, 56(%rbx)
	movq	%r13, 64(%rbx)
	movq	%rsi, 72(%rbx)
	movq	%r8, 80(%rbx)
	addq	$72, %rsp
	.cfi_def_cfa_offset 56
	popq	%rbx
	.cfi_def_cfa_offset 48
	popq	%r12
	.cfi_def_cfa_offset 40
	popq	%r13
	.cfi_def_cfa_offset 32
	popq	%r14
	.cfi_def_cfa_offset 24
	popq	%r15
	.cfi_def_cfa_offset 16
	popq	%rbp
	.cfi_def_cfa_offset 8
	retq
.LBB82_70:
	.cfi_def_cfa_offset 128
	addq	$-1, %rdx
.LBB82_71:
	movq	%rdx, %r10
	addq	%r10, %r13
	subq	%r10, %rbx
	testq	%rbx, %rbx
	jne	.LBB82_39
	jmp	.LBB82_75
.LBB82_72:
	movq	%rbp, %r10
	addq	%r10, %r13
	subq	%r10, %rbx
	testq	%rbx, %rbx
	jne	.LBB82_39
	jmp	.LBB82_75
.LBB82_73:
	movq	%rbp, %r10
	addq	$1, %r10
	addq	%r10, %r13
	subq	%r10, %rbx
	testq	%rbx, %rbx
	jne	.LBB82_39
	jmp	.LBB82_75
.LBB82_74:
	movq	%rbp, %r10
	addq	$2, %r10
	addq	%r10, %r13
	subq	%r10, %rbx
	testq	%rbx, %rbx
	jne	.LBB82_39
	jmp	.LBB82_75
.LBB82_120:
	callq	_ZN4core5slice22slice_index_order_fail17h0e662b493ebc9fb3E
	ud2
.LBB82_121:
	movq	%rdx, %rdi
	movq	%rax, %rsi
	callq	_ZN4core5slice22slice_index_order_fail17h0e662b493ebc9fb3E
	ud2
.Lfunc_end82:
	.size	_ZN12lexical_core4atof9algorithm7correct11parse_float17hde0e656b845361f8E, .Lfunc_end82-_ZN12lexical_core4atof9algorithm7correct11parse_float17hde0e656b845361f8E
	.cfi_endproc

	.section	.text.atof64_range,"ax",@progbits
	.globl	atof64_range
	.p2align	4, 0x90
	.type	atof64_range,@function
atof64_range:
.Lfunc_begin83:
	.cfi_startproc
	pushq	%rax
	.cfi_def_cfa_offset 16
	cmpq	%rsi, %rdi
	ja	.LBB83_3
	testq	%rdi, %rdi
	je	.LBB83_3
	testq	%rsi, %rsi
	je	.LBB83_3
	subq	%rdi, %rsi
	xorl	%edx, %edx
	popq	%rax
	.cfi_def_cfa_offset 8
	jmp	_ZN12lexical_core4atof3api4atof17h5a250fc009af65e0E
.LBB83_3:
	.cfi_def_cfa_offset 16
	leaq	.Lanon.a8e4ed8328978708c0e7fc28f693712c.2(%rip), %rdi
	leaq	.Lanon.a8e4ed8328978708c0e7fc28f693712c.14(%rip), %rdx
	movl	$70, %esi
	callq	_ZN3std9panicking11begin_panic17hc53bd1a638d5bd8cE
	ud2
.Lfunc_end83:
	.size	atof64_range, .Lfunc_end83-atof64_range
	.cfi_endproc

	.section	.rodata.cst8,"aM",@progbits,8
	.p2align	3
.LCPI84_0:
	.quad	-9223372036854775808
.LCPI84_1:
	.quad	9221120237041090560
.LCPI84_2:
	.quad	9218868437227405312
	.section	.rodata.cst16,"aM",@progbits,16
	.p2align	4
.LCPI84_3:
	.quad	-9223372036854775808
	.quad	-9223372036854775808
	.section	.text._ZN12lexical_core4atof3api4atof17h5a250fc009af65e0E,"ax",@progbits
	.p2align	4, 0x90
	.type	_ZN12lexical_core4atof3api4atof17h5a250fc009af65e0E,@function
_ZN12lexical_core4atof3api4atof17h5a250fc009af65e0E:
.Lfunc_begin84:
	.cfi_startproc
	pushq	%rbp
	.cfi_def_cfa_offset 16
	pushq	%r15
	.cfi_def_cfa_offset 24
	pushq	%r14
	.cfi_def_cfa_offset 32
	pushq	%rbx
	.cfi_def_cfa_offset 40
	pushq	%rax
	.cfi_def_cfa_offset 48
	.cfi_offset %rbx, -40
	.cfi_offset %r14, -32
	.cfi_offset %r15, -24
	.cfi_offset %rbp, -16
	xorps	%xmm0, %xmm0
	testq	%rsi, %rsi
	je	.LBB84_5
	movb	(%rdi), %al
	cmpb	$45, %al
	je	.LBB84_6
	movb	$1, %r14b
	cmpb	$43, %al
	je	.LBB84_7
	xorl	%r15d, %r15d
	subq	%r15, %rsi
	jne	.LBB84_9
.LBB84_4:
	leaq	.Lanon.a8e4ed8328978708c0e7fc28f693712c.4(%rip), %rdi
	xorl	%esi, %esi
	xorl	%edx, %edx
	callq	_ZN4core9panicking18panic_bounds_check17h620ba7e4e283471aE
	ud2
.LBB84_5:
	xorl	%eax, %eax
	jmp	.LBB84_37
.LBB84_6:
	xorl	%r14d, %r14d
.LBB84_7:
	movl	$1, %r15d
	cmpq	$2, %rsi
	jb	.LBB84_13
	subq	%r15, %rsi
	je	.LBB84_4
.LBB84_9:
	addq	%r15, %rdi
	movb	(%rdi), %al
	movl	%eax, %ecx
	addb	$-46, %cl
	cmpb	$32, %cl
	ja	.LBB84_15
	movzbl	%cl, %eax
	leaq	.LJTI84_0(%rip), %rcx
	movslq	(%rcx,%rax,4), %rax
	addq	%rcx, %rax
	jmpq	*%rax
.LBB84_11:
	cmpq	$1, %rsi
	jne	.LBB84_31
	xorps	%xmm0, %xmm0
	xorl	%eax, %eax
	addq	%r15, %rax
	testb	%r14b, %r14b
	je	.LBB84_36
	jmp	.LBB84_37
.LBB84_13:
	xorl	%eax, %eax
	testb	%r14b, %r14b
	jne	.LBB84_37
	movsd	.LCPI84_0(%rip), %xmm0
	jmp	.LBB84_37
.LBB84_15:
	cmpb	$105, %al
	je	.LBB84_43
	cmpb	$110, %al
	jne	.LBB84_31
	movq	_ZN12lexical_core4util6config10NAN_STRING17h51ff9acbf15e5699E(%rip), %rcx
	xorps	%xmm0, %xmm0
	xorl	%eax, %eax
	cmpq	%rsi, %rcx
	ja	.LBB84_35
	leaq	_ZN4core3num19ASCII_LOWERCASE_MAP17h88616eefcc9dd3afE(%rip), %rsi
	leaq	_ZN12lexical_core4util6config10NAN_STRING17h51ff9acbf15e5699E(%rip), %r8
	xorl	%edx, %edx
	.p2align	4, 0x90
.LBB84_19:
	cmpq	%rdx, %rcx
	je	.LBB84_49
	cmpq	%rdx, %rcx
	je	.LBB84_35
	movzbl	(%rdi,%rdx), %ebx
	movzbl	(%rbx,%rsi), %ebx
	movzbl	8(%rdx,%r8), %ebp
	addq	$1, %rdx
	cmpb	(%rbp,%rsi), %bl
	je	.LBB84_19
	jmp	.LBB84_35
.LBB84_22:
	movq	_ZN12lexical_core4util6config10NAN_STRING17h51ff9acbf15e5699E(%rip), %rcx
	xorps	%xmm0, %xmm0
	xorl	%eax, %eax
	cmpq	%rsi, %rcx
	ja	.LBB84_35
